(dp0
S'graph'
p1
ccopy_reg
_reconstructor
p2
(cnetworkx.classes.graph
Graph
p3
c__builtin__
object
p4
Ntp5
Rp6
(dp7
S'node'
p8
(dp9
V344
p10
(dp11
sV0
p12
(dp13
sV346
p14
(dp15
sV347
p16
(dp17
sV340
p18
(dp19
sV341
p20
(dp21
sV342
p22
(dp23
sV343
p24
(dp25
sV348
p26
(dp27
sV349
p28
(dp29
sV298
p30
(dp31
sV299
p32
(dp33
sV296
p34
(dp35
sV297
p36
(dp37
sV294
p38
(dp39
sV295
p40
(dp41
sV292
p42
(dp43
sV293
p44
(dp45
sV290
p46
(dp47
sV291
p48
(dp49
sV199
p50
(dp51
sV198
p52
(dp53
sV195
p54
(dp55
sV194
p56
(dp57
sV197
p58
(dp59
sV196
p60
(dp61
sV191
p62
(dp63
sV190
p64
(dp65
sV193
p66
(dp67
sV192
p68
(dp69
sV270
p70
(dp71
sV271
p72
(dp73
sV272
p74
(dp75
sV273
p76
(dp77
sV274
p78
(dp79
sV275
p80
(dp81
sV276
p82
(dp83
sV277
p84
(dp85
sV278
p86
(dp87
sV279
p88
(dp89
sV449
p90
(dp91
sV448
p92
(dp93
sV443
p94
(dp95
sV442
p96
(dp97
sV441
p98
(dp99
sV440
p100
(dp101
sV447
p102
(dp103
sV446
p104
(dp105
sV445
p106
(dp107
sV444
p108
(dp109
sV108
p110
(dp111
sV109
p112
(dp113
sV102
p114
(dp115
sV103
p116
(dp117
sV100
p118
(dp119
sV101
p120
(dp121
sV106
p122
(dp123
sV107
p124
(dp125
sV104
p126
(dp127
sV105
p128
(dp129
sV39
p130
(dp131
sV38
p132
(dp133
sV33
p134
(dp135
sV32
p136
(dp137
sV31
p138
(dp139
sV30
p140
(dp141
sV37
p142
(dp143
sV36
p144
(dp145
sV35
p146
(dp147
sV34
p148
(dp149
sV438
p150
(dp151
sV439
p152
(dp153
sV436
p154
(dp155
sV437
p156
(dp157
sV434
p158
(dp159
sV435
p160
(dp161
sV432
p162
(dp163
sV433
p164
(dp165
sV430
p166
(dp167
sV431
p168
(dp169
sV339
p170
(dp171
sV338
p172
(dp173
sV335
p174
(dp175
sV334
p176
(dp177
sV337
p178
(dp179
sV336
p180
(dp181
sV331
p182
(dp183
sV330
p184
(dp185
sV333
p186
(dp187
sV332
p188
(dp189
sV345
p190
(dp191
sV6
p192
(dp193
sV99
p194
(dp195
sV98
p196
(dp197
sV91
p198
(dp199
sV90
p200
(dp201
sV93
p202
(dp203
sV92
p204
(dp205
sV95
p206
(dp207
sV94
p208
(dp209
sV97
p210
(dp211
sV96
p212
(dp213
sV238
p214
(dp215
sV239
p216
(dp217
sV234
p218
(dp219
sV235
p220
(dp221
sV236
p222
(dp223
sV237
p224
(dp225
sV230
p226
(dp227
sV231
p228
(dp229
sV232
p230
(dp231
sV233
p232
(dp233
sV1
p234
(dp235
sV146
p236
(dp237
sV147
p238
(dp239
sV144
p240
(dp241
sV145
p242
(dp243
sV142
p244
(dp245
sV143
p246
(dp247
sV140
p248
(dp249
sV141
p250
(dp251
sV148
p252
(dp253
sV149
p254
(dp255
sV133
p256
(dp257
sV132
p258
(dp259
sV131
p260
(dp261
sV130
p262
(dp263
sV137
p264
(dp265
sV136
p266
(dp267
sV135
p268
(dp269
sV134
p270
(dp271
sV139
p272
(dp273
sV138
p274
(dp275
sV24
p276
(dp277
sV25
p278
(dp279
sV26
p280
(dp281
sV27
p282
(dp283
sV20
p284
(dp285
sV21
p286
(dp287
sV22
p288
(dp289
sV23
p290
(dp291
sV28
p292
(dp293
sV29
p294
(dp295
sV407
p296
(dp297
sV406
p298
(dp299
sV405
p300
(dp301
sV404
p302
(dp303
sV403
p304
(dp305
sV402
p306
(dp307
sV401
p308
(dp309
sV400
p310
(dp311
sV409
p312
(dp313
sV408
p314
(dp315
sV379
p316
(dp317
sV378
p318
(dp319
sV371
p320
(dp321
sV370
p322
(dp323
sV373
p324
(dp325
sV372
p326
(dp327
sV375
p328
(dp329
sV374
p330
(dp331
sV377
p332
(dp333
sV376
p334
(dp335
sV393
p336
(dp337
sV392
p338
(dp339
sV88
p340
(dp341
sV89
p342
(dp343
sV397
p344
(dp345
sV396
p346
(dp347
sV395
p348
(dp349
sV394
p350
(dp351
sV82
p352
(dp353
sV83
p354
(dp355
sV399
p356
(dp357
sV81
p358
(dp359
sV86
p360
(dp361
sV87
p362
(dp363
sV84
p364
(dp365
sV85
p366
(dp367
sV7
p368
(dp369
sV245
p370
(dp371
sV244
p372
(dp373
sV247
p374
(dp375
sV246
p376
(dp377
sV241
p378
(dp379
sV240
p380
(dp381
sV243
p382
(dp383
sV242
p384
(dp385
sV249
p386
(dp387
sV248
p388
(dp389
sV450
p390
(dp391
sV451
p392
(dp393
sV452
p394
(dp395
sV453
p396
(dp397
sV179
p398
(dp399
sV178
p400
(dp401
sV177
p402
(dp403
sV176
p404
(dp405
sV175
p406
(dp407
sV174
p408
(dp409
sV173
p410
(dp411
sV172
p412
(dp413
sV171
p414
(dp415
sV170
p416
(dp417
sV182
p418
(dp419
sV183
p420
(dp421
sV180
p422
(dp423
sV2
p424
(dp425
sV186
p426
(dp427
sV187
p428
(dp429
sV184
p430
(dp431
sV185
p432
(dp433
sV188
p434
(dp435
sV189
p436
(dp437
sV11
p438
(dp439
sV10
p440
(dp441
sV13
p442
(dp443
sV12
p444
(dp445
sV15
p446
(dp447
sV14
p448
(dp449
sV17
p450
(dp451
sV16
p452
(dp453
sV19
p454
(dp455
sV18
p456
(dp457
sV2025
p458
(dp459
sV322
p460
(dp461
sV323
p462
(dp463
sV320
p464
(dp465
sV321
p466
(dp467
sV326
p468
(dp469
sV327
p470
(dp471
sV324
p472
(dp473
sV325
p474
(dp475
sV328
p476
(dp477
sV329
p478
(dp479
sV201
p480
(dp481
sV200
p482
(dp483
sV203
p484
(dp485
sV202
p486
(dp487
sV205
p488
(dp489
sV204
p490
(dp491
sV207
p492
(dp493
sV206
p494
(dp495
sV209
p496
(dp497
sV208
p498
(dp499
sV77
p500
(dp501
sV76
p502
(dp503
sV75
p504
(dp505
sV74
p506
(dp507
sV73
p508
(dp509
sV72
p510
(dp511
sV71
p512
(dp513
sV70
p514
(dp515
sV79
p516
(dp517
sV78
p518
(dp519
sV8
p520
(dp521
sV120
p522
(dp523
sV121
p524
(dp525
sV122
p526
(dp527
sV123
p528
(dp529
sV124
p530
(dp531
sV125
p532
(dp533
sV126
p534
(dp535
sV127
p536
(dp537
sV128
p538
(dp539
sV129
p540
(dp541
sV414
p542
(dp543
sV415
p544
(dp545
sV416
p546
(dp547
sV417
p548
(dp549
sV410
p550
(dp551
sV411
p552
(dp553
sV412
p554
(dp555
sV413
p556
(dp557
sV418
p558
(dp559
sV419
p560
(dp561
sV319
p562
(dp563
sV318
p564
(dp565
sV313
p566
(dp567
sV312
p568
(dp569
sV311
p570
(dp571
sV310
p572
(dp573
sV317
p574
(dp575
sV316
p576
(dp577
sV315
p578
(dp579
sV314
p580
(dp581
sV3
p582
(dp583
sV368
p584
(dp585
sV369
p586
(dp587
sV366
p588
(dp589
sV367
p590
(dp591
sV364
p592
(dp593
sV365
p594
(dp595
sV362
p596
(dp597
sV363
p598
(dp599
sV360
p600
(dp601
sV361
p602
(dp603
sV380
p604
(dp605
sV381
p606
(dp607
sV382
p608
(dp609
sV383
p610
(dp611
sV384
p612
(dp613
sV385
p614
(dp615
sV386
p616
(dp617
sV387
p618
(dp619
sV388
p620
(dp621
sV389
p622
(dp623
sV60
p624
(dp625
sV61
p626
(dp627
sV258
p628
(dp629
sV259
p630
(dp631
sV64
p632
(dp633
sV65
p634
(dp635
sV66
p636
(dp637
sV67
p638
(dp639
sV252
p640
(dp641
sV69
p642
(dp643
sV250
p644
(dp645
sV251
p646
(dp647
sV256
p648
(dp649
sV257
p650
(dp651
sV254
p652
(dp653
sV255
p654
(dp655
sV168
p656
(dp657
sV169
p658
(dp659
sV164
p660
(dp661
sV165
p662
(dp663
sV166
p664
(dp665
sV167
p666
(dp667
sV160
p668
(dp669
sV161
p670
(dp671
sV162
p672
(dp673
sV163
p674
(dp675
sV9
p676
(dp677
sV357
p678
(dp679
sV356
p680
(dp681
sV355
p682
(dp683
sV354
p684
(dp685
sV353
p686
(dp687
sV352
p688
(dp689
sV351
p690
(dp691
sV350
p692
(dp693
sV359
p694
(dp695
sV358
p696
(dp697
sV216
p698
(dp699
sV217
p700
(dp701
sV214
p702
(dp703
sV215
p704
(dp705
sV212
p706
(dp707
sV213
p708
(dp709
sV210
p710
(dp711
sV211
p712
(dp713
sV218
p714
(dp715
sV219
p716
(dp717
sV289
p718
(dp719
sV288
p720
(dp721
sV4
p722
(dp723
sV281
p724
(dp725
sV280
p726
(dp727
sV283
p728
(dp729
sV282
p730
(dp731
sV285
p732
(dp733
sV284
p734
(dp735
sV287
p736
(dp737
sV286
p738
(dp739
sV263
p740
(dp741
sV262
p742
(dp743
sV261
p744
(dp745
sV260
p746
(dp747
sV267
p748
(dp749
sV266
p750
(dp751
sV265
p752
(dp753
sV264
p754
(dp755
sV269
p756
(dp757
sV268
p758
(dp759
sV59
p760
(dp761
sV58
p762
(dp763
sV55
p764
(dp765
sV54
p766
(dp767
sV57
p768
(dp769
sV56
p770
(dp771
sV51
p772
(dp773
sV62
p774
(dp775
sV53
p776
(dp777
sV52
p778
(dp779
sV63
p780
(dp781
sV50
p782
(dp783
sV115
p784
(dp785
sV68
p786
(dp787
sV117
p788
(dp789
sV116
p790
(dp791
sV111
p792
(dp793
sV110
p794
(dp795
sV113
p796
(dp797
sV253
p798
(dp799
sV119
p800
(dp801
sV118
p802
(dp803
sV429
p804
(dp805
sV428
p806
(dp807
sV421
p808
(dp809
sV420
p810
(dp811
sV423
p812
(dp813
sV422
p814
(dp815
sV425
p816
(dp817
sV424
p818
(dp819
sV427
p820
(dp821
sV426
p822
(dp823
sV308
p824
(dp825
sV309
p826
(dp827
sV300
p828
(dp829
sV301
p830
(dp831
sV302
p832
(dp833
sV303
p834
(dp835
sV304
p836
(dp837
sV305
p838
(dp839
sV306
p840
(dp841
sV307
p842
(dp843
sV181
p844
(dp845
sV229
p846
(dp847
sV228
p848
(dp849
sV227
p850
(dp851
sV226
p852
(dp853
sV225
p854
(dp855
sV224
p856
(dp857
sV223
p858
(dp859
sV222
p860
(dp861
sV221
p862
(dp863
sV220
p864
(dp865
sV114
p866
(dp867
sV391
p868
(dp869
sV390
p870
(dp871
sV151
p872
(dp873
sV150
p874
(dp875
sV153
p876
(dp877
sV152
p878
(dp879
sV155
p880
(dp881
sV154
p882
(dp883
sV157
p884
(dp885
sV156
p886
(dp887
sV159
p888
(dp889
sV158
p890
(dp891
sV112
p892
(dp893
sV80
p894
(dp895
sV398
p896
(dp897
sV48
p898
(dp899
sV49
p900
(dp901
sV46
p902
(dp903
sV47
p904
(dp905
sV44
p906
(dp907
sV45
p908
(dp909
sV42
p910
(dp911
sV43
p912
(dp913
sV40
p914
(dp915
sV41
p916
(dp917
sV5
p918
(dp919
ssS'edge'
p920
(dp921
g10
(dp922
V128
p923
(dp924
sV89
p925
(dp926
sV186
p927
(dp928
sV143
p929
(dp930
ssg12
(dp931
g396
(dp932
ssg14
(dp933
V289
p934
(dp935
sV133
p936
(dp937
sV186
p938
(dp939
sV184
p940
(dp941
sV147
p942
(dp943
ssg16
(dp944
g934
(dp945
sV176
p946
(dp947
sV31
p948
(dp949
sV186
p950
(dp951
sg942
(dp952
ssg18
(dp953
V11
p954
(dp955
sV408
p956
(dp957
sV449
p958
(dp959
sg22
(dp960
sg106
(dp961
sg108
(dp962
sg936
(dp963
sV183
p964
(dp965
sV383
p966
(dp967
sV186
p968
(dp969
sV135
p970
(dp971
sV384
p972
(dp973
sV426
p974
(dp975
sV74
p976
(dp977
sV431
p978
(dp979
ssg20
(dp980
g934
(dp981
sg925
(dp982
sV186
p983
(dp984
ssg22
(dp985
V133
p986
(dp987
sV36
p988
(dp989
sg934
(dp990
sg925
(dp991
sg18
g960
sV186
p992
(dp993
ssg24
(dp994
V155
p995
(dp996
sV392
p997
(dp998
sV391
p999
(dp1000
sV395
p1001
(dp1002
sV173
p1003
(dp1004
sV107
p1005
(dp1006
ssg26
(dp1007
g724
(dp1008
sV133
p1009
(dp1010
sg938
(dp1011
sV345
p1012
(dp1013
ssg28
(dp1014
V147
p1015
(dp1016
sg948
(dp1017
sg988
(dp1018
sg986
(dp1019
sV73
p1020
(dp1021
sg724
(dp1022
ssg30
(dp1023
V215
p1024
(dp1025
sV155
p1026
(dp1027
sV191
p1028
(dp1029
sg1009
(dp1030
sg1001
(dp1031
sg946
(dp1032
sV230
p1033
(dp1034
sV173
p1035
(dp1036
sV171
p1037
(dp1038
sg276
(dp1039
sg278
(dp1040
sg280
(dp1041
sg898
(dp1042
sg902
(dp1043
sg904
(dp1044
sg916
(dp1045
sg934
(dp1046
sV186
p1047
(dp1048
sV408
p1049
(dp1050
sV147
p1051
(dp1052
sg1005
(dp1053
sV220
p1054
(dp1055
ssg32
(dp1056
g942
(dp1057
sV300
p1058
(dp1059
sg836
(dp1060
sg934
(dp1061
sV186
p1062
(dp1063
sg1009
(dp1064
sg618
(dp1065
ssg34
(dp1066
g522
(dp1067
sg934
(dp1068
sV115
p1069
(dp1070
ssg36
(dp1071
g934
(dp1072
sV227
p1073
(dp1074
sg1033
(dp1075
sg1005
(dp1076
sV65
p1077
(dp1078
ssg38
(dp1079
g934
(dp1080
sg925
(dp1081
sV186
p1082
(dp1083
ssg40
(dp1084
V147
p1085
(dp1086
sV44
p1087
(dp1088
sg934
(dp1089
sg925
(dp1090
sV186
p1091
(dp1092
sg1077
(dp1093
sg1009
(dp1094
sg946
(dp1095
sg1049
(dp1096
sg1005
(dp1097
sg1054
(dp1098
ssg42
(dp1099
V414
p1100
(dp1101
sV186
p1102
(dp1103
sV173
p1104
(dp1105
sg934
(dp1106
ssg44
(dp1107
g1087
(dp1108
sV192
p1109
(dp1110
sg934
(dp1111
sV186
p1112
(dp1113
sg1077
(dp1114
sV227
p1115
(dp1116
sV376
p1117
(dp1118
ssg46
(dp1119
g1100
(dp1120
sV186
p1121
(dp1122
sg1104
(dp1123
sg934
(dp1124
ssg48
(dp1125
V227
p1126
(dp1127
sg1100
(dp1128
sg1104
(dp1129
sg934
(dp1130
ssg50
(dp1131
V147
p1132
(dp1133
sV145
p1134
(dp1135
sg1087
(dp1136
sV416
p1137
(dp1138
sg936
(dp1139
sV88
p1140
(dp1141
sV186
p1142
(dp1143
sg1077
(dp1144
sV229
p1145
(dp1146
sV228
p1147
(dp1148
sV227
p1149
(dp1150
sV230
p1151
(dp1152
sV231
p1153
(dp1154
ssg52
(dp1155
V146
p1156
(dp1157
sV147
p1158
(dp1159
sg1024
(dp1160
sg760
(dp1161
sV58
p1162
(dp1163
sV217
p1164
(dp1165
sV31
p1166
(dp1167
sg988
(dp1168
sV50
p1169
(dp1170
sg934
(dp1171
sV89
p1172
(dp1173
sV186
p1174
(dp1175
sg1009
(dp1176
sg946
(dp1177
sg1069
(dp1178
sg1151
(dp1179
sV311
p1180
(dp1181
sg1049
(dp1182
ssg54
(dp1183
g1158
(dp1184
sV153
p1185
(dp1186
sV205
p1187
(dp1188
sV207
p1189
(dp1190
sV200
p1191
(dp1192
sV450
p1193
(dp1194
sV311
p1195
(dp1196
sV56
p1197
(dp1198
sg934
(dp1199
sV89
p1200
(dp1201
sV217
p1202
(dp1203
sV186
p1204
(dp1205
sg1069
(dp1206
sV408
p1207
(dp1208
ssg56
(dp1209
g934
(dp1210
sV186
p1211
(dp1212
ssg58
(dp1213
g942
(dp1214
sg948
(dp1215
sg934
(dp1216
sg1172
(dp1217
sV186
p1218
(dp1219
sg1009
(dp1220
ssg60
(dp1221
g1009
(dp1222
sV217
p1223
(dp1224
sg1069
(dp1225
sg1218
(dp1226
sg942
(dp1227
ssg62
(dp1228
V155
p1229
(dp1230
sV45
p1231
(dp1232
sg934
(dp1233
sV186
p1234
(dp1235
sg1077
(dp1236
sV298
p1237
g1029
sV228
p1238
(dp1239
sV227
p1240
(dp1241
sV173
p1242
(dp1243
ssg64
(dp1244
g934
(dp1245
sV88
p1246
(dp1247
sg925
(dp1248
sV186
p1249
(dp1250
ssg66
(dp1251
V205
p1252
(dp1253
sg1166
(dp1254
sg1109
(dp1255
sV88
p1256
(dp1257
sg342
(dp1258
sV186
p1259
(dp1260
sg368
(dp1261
sV212
p1262
(dp1263
sg1037
(dp1264
ssg68
(dp1265
V293
p1266
g1110
sV147
p1267
(dp1268
sV220
p1269
(dp1270
sV145
p1271
(dp1272
sV14
p1273
(dp1274
sV427
p1275
(dp1276
sV136
p1277
(dp1278
sV193
p1279
g1255
sV248
p1280
(dp1281
sV128
p1282
(dp1283
sV382
p1284
(dp1285
sV186
p1286
(dp1287
sV187
p1288
(dp1289
sV127
p1290
(dp1291
sV371
p1292
(dp1293
sV226
p1294
(dp1295
sV408
p1296
(dp1297
sV363
p1298
(dp1299
sV221
p1300
(dp1301
sV233
p1302
(dp1303
ssg70
(dp1304
g1262
(dp1305
sg1246
(dp1306
sV89
p1307
(dp1308
sg1026
(dp1309
sg1003
(dp1310
sg1005
(dp1311
ssg72
(dp1312
g1246
(dp1313
sg1307
(dp1314
sg1026
(dp1315
sg1005
(dp1316
ssg74
(dp1317
g366
(dp1318
sg934
(dp1319
sg1062
(dp1320
sV82
p1321
(dp1322
sV80
p1323
(dp1324
sg358
(dp1325
sV230
p1326
(dp1327
sV84
p1328
(dp1329
sV220
p1330
(dp1331
ssg76
(dp1332
V147
p1333
(dp1334
sg934
(dp1335
sg986
(dp1336
sV82
p1337
(dp1338
sg1323
(dp1339
sg358
(dp1340
sg1326
(dp1341
sg1328
(dp1342
sg366
(dp1343
ssg78
(dp1344
g700
(dp1345
sV123
p1346
(dp1347
sg770
(dp1348
sV433
p1349
(dp1350
ssg80
(dp1351
V128
p1352
(dp1353
sg925
(dp1354
sg927
(dp1355
sg929
(dp1356
ssg82
(dp1357
g1026
(dp1358
sg1246
(dp1359
sg1307
(dp1360
sV186
p1361
(dp1362
sV173
p1363
(dp1364
sg1005
(dp1365
ssg84
(dp1366
g1166
(dp1367
sg1307
(dp1368
sg1026
(dp1369
sg1246
(dp1370
sg1005
(dp1371
ssg86
(dp1372
g942
(dp1373
sg576
(dp1374
sV101
p1375
(dp1376
sg800
(dp1377
sV427
p1378
(dp1379
sV426
p1380
(dp1381
ssg88
(dp1382
g934
(dp1383
sV186
p1384
(dp1385
ssg90
(dp1386
V147
p1387
(dp1388
sg1087
(dp1389
sg934
(dp1390
sg925
(dp1391
sg18
g959
sg936
(dp1392
sg618
(dp1393
sV186
p1394
(dp1395
sV230
p1396
(dp1397
ssg92
(dp1398
g934
(dp1399
sg264
(dp1400
sg430
(dp1401
ssg94
(dp1402
V147
p1403
(dp1404
sV145
p1405
(dp1406
sg834
(dp1407
sg830
(dp1408
sg100
(dp1409
sV149
p1410
(dp1411
sg934
(dp1412
sV186
p1413
(dp1414
sg380
(dp1415
sg554
(dp1416
sV93
p1417
(dp1418
ssg96
(dp1419
g934
(dp1420
sg1256
(dp1421
sg925
(dp1422
sV186
p1423
(dp1424
ssg98
(dp1425
g986
(dp1426
sg948
(dp1427
sg929
(dp1428
sg988
(dp1429
ssg100
(dp1430
g94
g1409
sg934
(dp1431
sg1417
(dp1432
sg1413
(dp1433
sg1410
(dp1434
ssg102
(dp1435
g934
(dp1436
sV186
p1437
(dp1438
ssg104
(dp1439
g934
(dp1440
sV186
p1441
(dp1442
ssg106
(dp1443
g936
(dp1444
sg18
g961
sg1087
(dp1445
sV230
p1446
(dp1447
sV147
p1448
(dp1449
ssg108
(dp1450
g986
(dp1451
sV147
p1452
(dp1453
sg18
g962
sg988
(dp1454
sV408
p1455
(dp1456
ssg110
(dp1457
g988
(dp1458
sg986
(dp1459
sg626
(dp1460
sg1077
(dp1461
sg192
(dp1462
sV227
p1463
(dp1464
ssg112
(dp1465
g1463
(dp1466
sg1166
(dp1467
sV186
p1468
(dp1469
sg1077
(dp1470
sg1087
(dp1471
ssg114
(dp1472
V186
p1473
(dp1474
sV173
p1475
(dp1476
sg1005
(dp1477
sg1077
(dp1478
ssg116
(dp1479
V186
p1480
(dp1481
sV173
p1482
(dp1483
sg1005
(dp1484
sg1077
(dp1485
ssg118
(dp1486
g934
(dp1487
sV90
p1488
(dp1489
sV186
p1490
(dp1491
sg1077
(dp1492
ssg120
(dp1493
V278
p1494
g1376
sV230
p1495
(dp1496
sg1246
(dp1497
sV119
p1498
(dp1499
sg942
(dp1500
ssg122
(dp1501
g1121
(dp1502
sV173
p1503
(dp1504
sg1005
(dp1505
sg1077
(dp1506
ssg124
(dp1507
V153
p1508
(dp1509
sg704
(dp1510
sV155
p1511
(dp1512
sV147
p1513
(dp1514
sV337
p1515
(dp1516
sV394
p1517
(dp1518
sg574
(dp1519
sV270
p1520
g1311
sV271
p1521
g1316
sg1077
(dp1522
sV276
p1523
g1365
sV277
p1524
g1371
sV176
p1525
(dp1526
sV174
p1527
(dp1528
sV173
p1529
(dp1530
sg620
(dp1531
sV49
p1532
(dp1533
sV106
p1534
g1505
sV45
p1535
(dp1536
sV42
p1537
(dp1538
sV43
p1539
(dp1540
sV105
p1541
(dp1542
sV288
p1543
(dp1544
sV186
p1545
(dp1546
sV402
p1547
(dp1548
sV401
p1549
(dp1550
sV343
p1551
g1006
sV280
p1552
(dp1553
sV422
p1554
(dp1555
sV409
p1556
(dp1557
sV408
p1558
(dp1559
sV146
p1560
(dp1561
sV309
p1562
(dp1563
sV145
p1564
(dp1565
sV184
p1566
(dp1567
sV78
p1568
(dp1569
sV228
p1570
(dp1571
sV77
p1572
(dp1573
sg608
(dp1574
sg748
(dp1575
sg754
(dp1576
sg1126
(dp1577
sV103
p1578
g1484
sV102
p1579
g1477
sV104
p1580
(dp1581
sV96
p1582
(dp1583
sV220
p1584
(dp1585
sg160
(dp1586
sV392
p1587
(dp1588
sV32
p1589
(dp1590
sV75
p1591
(dp1592
sV414
p1593
(dp1594
sV437
p1595
(dp1596
sV295
p1597
g1097
sV298
p1598
g1053
sV413
p1599
(dp1600
sV370
p1601
(dp1602
sg158
(dp1603
sV426
p1604
(dp1605
sV297
p1606
g1076
sV368
p1607
(dp1608
ssg126
(dp1609
V186
p1610
(dp1611
sV173
p1612
(dp1613
sg1005
g1581
sg1077
(dp1614
ssg128
(dp1615
g1102
(dp1616
sg1035
(dp1617
sg1005
g1542
sg1077
(dp1618
ssg130
(dp1619
g1087
(dp1620
sg338
(dp1621
sg1246
(dp1622
sV186
p1623
(dp1624
sg1077
(dp1625
sV229
p1626
(dp1627
sV228
p1628
(dp1629
sV227
p1630
(dp1631
sV230
p1632
(dp1633
ssg132
(dp1634
V28
p1635
(dp1636
sg1246
(dp1637
sV229
p1638
(dp1639
sV228
p1640
(dp1641
sV227
p1642
(dp1643
sV230
p1644
(dp1645
sV427
p1646
(dp1647
ssg134
(dp1648
V147
p1649
(dp1650
sV153
p1651
(dp1652
sV145
p1653
(dp1654
sg144
(dp1655
sg986
(dp1656
sg1246
(dp1657
sV403
p1658
(dp1659
sV351
p1660
(dp1661
sV366
p1662
(dp1663
sg590
(dp1664
sV408
p1665
(dp1666
sV426
p1667
(dp1668
ssg136
(dp1669
g934
(dp1670
sV186
p1671
(dp1672
sg1005
g1590
ssg138
(dp1673
V217
p1674
(dp1675
sV153
p1676
(dp1677
sV212
p1678
(dp1679
sV198
p1680
g1167
sV197
p1681
g1215
sV228
p1682
(dp1683
sg702
(dp1684
sV193
p1685
g1254
sV227
p1686
(dp1687
sg866
(dp1688
sV62
p1689
(dp1690
sg790
(dp1691
sg344
(dp1692
sV136
p1693
(dp1694
sg348
(dp1695
sg84
g1367
sg622
(dp1696
sV230
p1697
(dp1698
sV231
p1699
(dp1700
sg414
(dp1701
sV213
p1702
(dp1703
sV268
p1704
(dp1705
sg360
(dp1706
sg906
(dp1707
sV145
p1708
(dp1709
sg934
(dp1710
sV183
p1711
(dp1712
sV347
p1713
g949
sV186
p1714
(dp1715
sV184
p1716
(dp1717
sV364
p1718
(dp1719
sg730
(dp1720
sV349
p1721
g1017
sg312
(dp1722
sV408
p1723
(dp1724
sV146
p1725
(dp1726
sV147
p1727
(dp1728
sV202
p1729
(dp1730
sV205
p1731
(dp1732
sV204
p1733
(dp1734
sV207
p1735
(dp1736
sV206
p1737
(dp1738
sV208
p1739
(dp1740
sV441
p1741
g1427
sV304
p1742
(dp1743
sV316
p1744
(dp1745
sg740
(dp1746
sV109
p1747
g1467
sV229
p1748
(dp1749
sV125
p1750
(dp1751
sV311
p1752
(dp1753
sV70
p1754
(dp1755
sV128
p1756
(dp1757
sV165
p1758
(dp1759
sg756
(dp1760
sg856
(dp1761
sg858
(dp1762
sV245
p1763
(dp1764
sg442
(dp1765
sV14
p1766
(dp1767
sV392
p1768
(dp1769
sV143
p1770
(dp1771
sV391
p1772
(dp1773
sV135
p1774
(dp1775
sV89
p1776
(dp1777
sV63
p1778
(dp1779
sV427
p1780
(dp1781
sg154
(dp1782
sV137
p1783
(dp1784
sV154
p1785
(dp1786
sV426
p1787
(dp1788
sV90
p1789
(dp1790
sV246
p1791
(dp1792
ssg140
(dp1793
V227
p1794
(dp1795
sg1246
(dp1796
sg362
(dp1797
sg1077
(dp1798
ssg142
(dp1799
V147
p1800
(dp1801
sV153
p1802
(dp1803
sV145
p1804
(dp1805
sg908
(dp1806
sg988
(dp1807
sg986
(dp1808
sg870
(dp1809
sV408
p1810
(dp1811
ssg144
(dp1812
V211
p1813
(dp1814
sg986
(dp1815
sV136
p1816
(dp1817
sg300
(dp1818
sV404
p1819
(dp1820
sg722
(dp1821
sV342
p1822
g989
sg176
(dp1823
sV285
p1824
(dp1825
sV349
p1826
g1018
sV409
p1827
(dp1828
sV408
p1829
(dp1830
sg584
(dp1831
sg526
(dp1832
sV125
p1833
(dp1834
sV128
p1835
(dp1836
sV59
p1837
(dp1838
sV58
p1839
(dp1840
sV54
p1841
(dp1842
sV62
p1843
(dp1844
sV53
p1845
(dp1846
sg546
(dp1847
sV417
p1848
(dp1849
sV371
p1850
(dp1851
sg322
(dp1852
sV373
p1853
(dp1854
sV376
p1855
(dp1856
sg564
(dp1857
sV198
p1858
g1168
sg570
(dp1859
sV390
p1860
(dp1861
sg794
(dp1862
sV399
p1863
(dp1864
sg368
(dp1865
sV364
p1866
(dp1867
sV422
p1868
(dp1869
sg816
(dp1870
sg818
(dp1871
sV427
p1872
(dp1873
sV300
p1874
(dp1875
sV441
p1876
g1429
sV303
p1877
(dp1878
sg840
(dp1879
sV444
p1880
g1454
sV245
p1881
(dp1882
sg372
(dp1883
sV108
p1884
g1458
sV248
p1885
(dp1886
sg134
g1655
sV37
p1887
g1807
sV432
p1888
(dp1889
sg166
(dp1890
sg168
(dp1891
sV335
p1892
(dp1893
sV451
p1894
(dp1895
sg180
(dp1896
sg186
(dp1897
sV332
p1898
(dp1899
sV60
p1900
(dp1901
sg628
(dp1902
sg630
(dp1903
sV68
p1904
(dp1905
sV176
p1906
(dp1907
sg406
(dp1908
sV183
p1909
(dp1910
sV186
p1911
(dp1912
sV184
p1913
(dp1914
sg432
(dp1915
sV202
p1916
(dp1917
sV164
p1918
(dp1919
sg202
(dp1920
sV167
p1921
(dp1922
sg672
(dp1923
sg448
(dp1924
sV153
p1925
(dp1926
sV152
p1927
(dp1928
sV155
p1929
(dp1930
sV154
p1931
(dp1932
sV159
p1933
(dp1934
sV158
p1935
(dp1936
sV238
p1937
(dp1938
sg220
(dp1939
sg222
(dp1940
sg224
(dp1941
sg1033
(dp1942
sV231
p1943
(dp1944
sV63
p1945
(dp1946
sg1087
(dp1947
sg460
(dp1948
sg462
(dp1949
sg464
(dp1950
sg466
(dp1951
sg468
(dp1952
sg470
(dp1953
sg472
(dp1954
sg474
(dp1955
sg476
(dp1956
sg478
(dp1957
sV146
p1958
(dp1959
sV147
p1960
(dp1961
sV145
p1962
(dp1963
sV205
p1964
(dp1965
sV143
p1966
(dp1967
sg494
(dp1968
sV208
p1969
(dp1970
sg254
(dp1971
sV70
p1972
(dp1973
ssg146
(dp1974
V147
p1975
(dp1976
sV145
p1977
(dp1978
sV155
p1979
(dp1980
sV306
p1981
(dp1982
sV422
p1983
(dp1984
sV408
p1985
(dp1986
ssg148
(dp1987
g934
(dp1988
sg896
(dp1989
sV14
p1990
(dp1991
sg602
(dp1992
ssg150
(dp1993
g986
(dp1994
sg934
(dp1995
sV186
p1996
(dp1997
sV147
p1998
(dp1999
ssg152
(dp2000
g1410
(dp2001
sg934
(dp2002
sg1256
(dp2003
sg925
(dp2004
sg1423
(dp2005
sV93
p2006
(dp2007
sg1054
(dp2008
ssg154
(dp2009
g1166
g1782
sg934
(dp2010
sV89
p2011
(dp2012
sV186
p2013
(dp2014
sg1077
(dp2015
sg1087
(dp2016
ssg156
(dp2017
g995
(dp2018
sg936
(dp2019
sg2013
(dp2020
sg946
(dp2021
sg356
(dp2022
sg1005
g1596
sg1049
(dp2023
ssg158
(dp2024
g1100
(dp2025
sV173
p2026
(dp2027
sg1005
g1603
ssg160
(dp2028
g1100
(dp2029
sg1979
(dp2030
sg1087
(dp2031
sg934
(dp2032
sV89
p2033
(dp2034
sV186
p2035
(dp2036
sg1077
(dp2037
sg936
(dp2038
sg946
(dp2039
sg1069
(dp2040
sg1104
(dp2041
sg1005
g1586
sg1037
(dp2042
sg1049
(dp2043
ssg162
(dp2044
g986
(dp2045
sV147
p2046
(dp2047
sg1087
(dp2048
sg988
g1889
sg210
(dp2049
ssg164
(dp2050
g700
(dp2051
sg770
(dp2052
sV274
p2053
g1350
ssg166
(dp2054
g986
(dp2055
sV147
p2056
(dp2057
sg988
g1890
ssg168
(dp2058
g440
(dp2059
sg192
(dp2060
sg988
g1891
sg934
(dp2061
sg1062
(dp2062
sg986
(dp2063
sV387
p2064
(dp2065
sV340
p2066
g979
sV408
p2067
(dp2068
ssg170
(dp2069
g934
(dp2070
sg1387
(dp2071
sg925
(dp2072
ssg172
(dp2073
g934
(dp2074
sg925
(dp2075
sV186
p2076
(dp2077
ssg174
(dp2078
g1015
(dp2079
sg988
g1893
sg986
(dp2080
sg925
(dp2081
sg927
(dp2082
sg934
(dp2083
ssg176
(dp2084
V147
p2085
(dp2086
sg988
g1823
sg1410
(dp2087
sg934
(dp2088
sg992
(dp2089
sg380
(dp2090
sg986
(dp2091
sV238
p2092
(dp2093
sV93
p2094
(dp2095
ssg178
(dp2096
g902
(dp2097
sg1100
(dp2098
sg1104
(dp2099
sg1005
g1516
sV186
p2100
(dp2101
ssg180
(dp2102
g986
(dp2103
sg934
(dp2104
sg992
(dp2105
sg988
g1896
sV147
p2106
(dp2107
ssg182
(dp2108
g934
(dp2109
sV177
p2110
(dp2111
sV186
p2112
(dp2113
ssg184
(dp2114
g934
(dp2115
sV230
p2116
(dp2117
sg422
(dp2118
sV186
p2119
(dp2120
sV229
p2121
(dp2122
ssg186
(dp2123
g986
(dp2124
sV147
p2125
(dp2126
sg988
g1897
ssg188
(dp2127
g986
(dp2128
sg1015
(dp2129
sg927
(dp2130
sg988
g1899
ssg190
(dp2131
g934
(dp2132
sV147
p2133
(dp2134
sg950
(dp2135
sg936
(dp2136
sV348
p2137
g1013
ssg192
(dp2138
V157
p2139
(dp2140
sV159
p2141
(dp2142
sV158
p2143
(dp2144
sg936
(dp2145
sV61
p2146
(dp2147
sV238
p2148
(dp2149
sg1077
(dp2150
sV135
p2151
(dp2152
sg786
(dp2153
sV170
p2154
(dp2155
sV428
p2156
(dp2157
sg582
(dp2158
sV186
p2159
(dp2160
sg722
(dp2161
sV360
p2162
(dp2163
sV408
p2164
(dp2165
sV146
p2166
(dp2167
sg238
(dp2168
sV145
p2169
(dp2170
sg194
(dp2171
sV108
p2172
g1462
sV168
p2173
(dp2174
sV169
p2175
(dp2176
sV243
p2177
(dp2178
sV228
p2179
(dp2180
sV227
p2181
(dp2182
sV167
p2183
(dp2184
sV163
p2185
(dp2186
sg768
(dp2187
sV431
p2188
g2060
ssg194
(dp2189
V13
p2190
(dp2191
sg1259
(dp2192
sg1077
(dp2193
sg1256
(dp2194
sg192
g2171
ssg196
(dp2195
V147
p2196
(dp2197
sg240
(dp2198
sV145
p2199
(dp2200
sg1087
(dp2201
sg934
(dp2202
sV186
p2203
(dp2204
sV110
p2205
(dp2206
sV229
p2207
(dp2208
sV230
p2209
(dp2210
sV408
p2211
(dp2212
ssg198
(dp2213
g1463
(dp2214
sg934
(dp2215
sV157
p2216
(dp2217
ssg200
(dp2218
V153
p2219
(dp2220
sV205
p2221
(dp2222
sg1166
g1790
sg294
(dp2223
sg1246
(dp2224
sV89
p2225
(dp2226
sV228
p2227
(dp2228
sV227
p2229
(dp2230
sV100
p2231
g1489
ssg202
(dp2232
g1998
(dp2233
sV443
p2234
g1418
sV301
p2235
(dp2236
sV440
p2237
g1432
sg988
g1920
sg1410
(dp2238
sg986
(dp2239
sV186
p2240
(dp2241
sV412
p2242
(dp2243
sV439
p2244
g2007
sV238
p2245
(dp2246
sV334
p2247
g2095
ssg204
(dp2248
g1009
(dp2249
sg934
(dp2250
ssg206
(dp2251
g934
(dp2252
sg936
(dp2253
sV186
p2254
(dp2255
ssg208
(dp2256
V147
p2257
(dp2258
sg764
(dp2259
sg936
(dp2260
sV186
p2261
(dp2262
sg934
(dp2263
sV408
p2264
(dp2265
ssg210
(dp2266
g934
(dp2267
sV157
p2268
(dp2269
sV230
p2270
(dp2271
sg936
(dp2272
sV186
p2273
(dp2274
sV229
p2275
(dp2276
sg162
g2049
ssg212
(dp2277
g2026
(dp2278
sg1246
(dp2279
sg1259
(dp2280
sg1005
g1583
sg1087
(dp2281
ssg214
(dp2282
V182
p2283
(dp2284
sV243
p2285
(dp2286
sg2106
(dp2287
sV334
p2288
g2093
sg934
(dp2289
sg988
g1938
sg1410
(dp2290
sV245
p2291
(dp2292
sV355
p2293
(dp2294
sV186
p2295
(dp2296
sV240
p2297
(dp2298
sg986
(dp2299
sg192
g2149
sV410
p2300
(dp2301
sg2094
g2246
sV369
p2302
(dp2303
sg2185
(dp2304
ssg216
(dp2305
g934
(dp2306
sV186
p2307
(dp2308
sg1077
(dp2309
ssg218
(dp2310
V385
p2311
(dp2312
sV306
p2313
(dp2314
sV233
p2315
(dp2316
ssg220
(dp2317
g986
(dp2318
sg1452
(dp2319
sg988
g1939
ssg222
(dp2320
g986
(dp2321
sV147
p2322
(dp2323
sg988
g1940
ssg224
(dp2324
g986
(dp2325
sg2322
(dp2326
sg988
g1941
ssg226
(dp2327
V153
p2328
(dp2329
sV155
p2330
(dp2331
sV198
p2332
g1179
sV158
p2333
(dp2334
sV178
p2335
(dp2336
sg184
g2117
sg50
g1152
sg936
(dp2337
sg402
(dp2338
sV272
p2339
g1327
sV273
p2340
g1341
sg792
(dp2341
sg398
(dp2342
sV112
p2343
(dp2344
sg352
(dp2345
sg354
(dp2346
sg894
(dp2347
sg358
(dp2348
sg2026
(dp2349
sV139
p2350
(dp2351
sg1328
(dp2352
sg366
(dp2353
sg934
(dp2354
sg120
g1496
sg906
(dp2355
sg908
(dp2356
sg234
(dp2357
sg844
(dp2358
sV186
p2359
(dp2360
sV36
p2361
g1942
sV233
p2362
(dp2363
sV427
p2364
(dp2365
sV408
p2366
(dp2367
sg1156
(dp2368
sV147
p2369
(dp2370
sV449
p2371
g1397
sV145
p2372
(dp2373
sV205
p2374
(dp2375
sg929
(dp2376
sg492
(dp2377
sV141
p2378
(dp2379
sV445
p2380
g1447
sV98
p2381
g2210
sV122
p2382
(dp2383
sg2311
(dp2384
sV229
p2385
(dp2386
sg36
g1075
sg1463
(dp2387
sV167
p2388
(dp2389
sg668
(dp2390
sg210
g2271
sV220
p2391
(dp2392
sg130
g1633
sg132
g1645
sg1166
g1698
sg1246
(dp2393
sV89
p2394
(dp2395
sV298
p2396
g1034
sg264
(dp2397
ssg228
(dp2398
V199
p2399
g1154
sV210
p2400
(dp2401
sV452
p2402
(dp2403
sg1009
(dp2404
sg1246
(dp2405
sg262
(dp2406
sV111
p2407
(dp2408
sg1077
(dp2409
sg2139
(dp2410
sg1087
(dp2411
sg934
(dp2412
sg1249
(dp2413
sg1646
(dp2414
sg2067
(dp2415
sg1156
(dp2416
sV147
p2417
(dp2418
sV205
p2419
(dp2420
sg929
(dp2421
sV208
p2422
(dp2423
sg923
(dp2424
sg2185
(dp2425
sg1069
(dp2426
sg1166
g1700
sg988
g1944
sg342
(dp2427
ssg230
(dp2428
g234
(dp2429
ssg232
(dp2430
V153
p2431
(dp2432
sg1109
g1303
sg784
(dp2433
sg2146
(dp2434
sg1246
(dp2435
sV89
p2436
(dp2437
sV234
p2438
g2316
sg358
(dp2439
sg1326
g2363
sg1037
(dp2440
sg366
(dp2441
sg1087
(dp2442
sg934
(dp2443
sV186
p2444
(dp2445
sV187
p2446
(dp2447
sV185
p2448
(dp2449
sV421
p2450
(dp2451
sg812
(dp2452
sV282
p2453
(dp2454
sV425
p2455
(dp2456
sV363
p2457
(dp2458
sV147
p2459
(dp2460
sV145
p2461
(dp2462
sV205
p2463
(dp2464
sV400
p2465
(dp2466
sV305
p2467
(dp2468
sg2313
(dp2469
sV120
p2470
(dp2471
sV381
p2472
(dp2473
sV382
p2474
(dp2475
sg614
(dp2476
sV228
p2477
(dp2478
sV227
p2479
(dp2480
sV226
p2481
(dp2482
sV223
p2483
(dp2484
sV222
p2485
(dp2486
sg1328
(dp2487
sV424
p2488
(dp2489
sV411
p2490
(dp2491
sV371
p2492
(dp2493
sV376
p2494
(dp2495
ssg234
(dp2496
g1087
(dp2497
sg934
(dp2498
sg2394
(dp2499
sg1077
(dp2500
sV229
p2501
(dp2502
sV228
p2503
(dp2504
sV227
p2505
(dp2506
sV230
p2507
g2357
sV232
p2508
g2429
ssg236
(dp2509
g1164
(dp2510
sV198
p2511
g1157
sg2139
(dp2512
sg256
(dp2513
sV132
p2514
(dp2515
sg1172
(dp2516
sV64
p2517
(dp2518
sg946
(dp2519
sV173
p2520
(dp2521
sV231
p2522
g2416
sV230
p2523
g2368
sg934
(dp2524
sV183
p2525
(dp2526
sV186
p2527
(dp2528
sV184
p2529
(dp2530
sg192
g2167
sg724
(dp2531
sg1049
(dp2532
sV147
p2533
(dp2534
sV145
p2535
(dp2536
sg440
(dp2537
sV302
p2538
(dp2539
sg836
(dp2540
sV246
p2541
(dp2542
sV229
p2543
(dp2544
sV228
p2545
(dp2546
sV227
p2547
(dp2548
sg1005
g1561
sg1069
(dp2549
sg948
g1726
sg988
g1959
ssg238
(dp2550
V216
p2551
(dp2552
sg1164
(dp2553
sg1024
(dp2554
sV210
p2555
(dp2556
sg256
(dp2557
sg258
(dp2558
sV131
p2559
(dp2560
sV136
p2561
(dp2562
sV135
p2563
(dp2564
sV134
p2565
(dp2566
sV222
p2567
(dp2568
sg934
(dp2569
sV345
p2570
g2134
sV346
p2571
g943
sg302
(dp2572
sg722
(dp2573
sV451
p2574
(dp2575
sg724
(dp2576
sV285
p2577
(dp2578
sV349
p2579
g1016
sV408
p2580
(dp2581
sg1463
(dp2582
sV261
p2583
(dp2584
sV124
p2585
(dp2586
sg750
(dp2587
sg534
(dp2588
sV127
p2589
(dp2590
sg538
(dp2591
sg760
(dp2592
sg1162
(dp2593
sV55
p2594
(dp2595
sg766
(dp2596
sg774
(dp2597
sg776
(dp2598
sg1100
(dp2599
sV417
p2600
(dp2601
sV410
p2602
(dp2603
sV298
p2604
g1052
sV299
p2605
g1057
sg320
(dp2606
sV370
p2607
(dp2608
sV295
p2609
g1086
sV374
p2610
(dp2611
sg334
(dp2612
sV318
p2613
(dp2614
sg2399
g1133
sV198
p2615
g1159
sV195
p2616
g1184
sV197
p2617
g1214
sV196
p2618
g1227
sg1109
g1268
sg336
(dp2619
sg1246
(dp2620
sg1172
(dp2621
sg1321
(dp2622
sV399
p2623
(dp2624
sV119
p2625
(dp2626
sV250
p2627
(dp2628
sg929
(dp2629
sV94
p2630
g2258
sg804
(dp2631
sV369
p2632
(dp2633
sV366
p2634
(dp2635
sV420
p2636
(dp2637
sV365
p2638
(dp2639
sV425
p2640
(dp2641
sV426
p2642
(dp2643
sV449
p2644
g1388
sV303
p2645
(dp2646
sV412
p2647
(dp2648
sg94
g1404
sV413
p2649
(dp2650
sg836
(dp2651
sg2313
(dp2652
sV444
p2653
g1453
sV380
p2654
(dp2655
sV247
p2656
(dp2657
sV246
p2658
(dp2659
sg378
(dp2660
sg380
(dp2661
sV243
p2662
(dp2663
sV307
p2664
(dp2665
sg1005
g1514
sV245
p2666
(dp2667
sV33
p2668
g1650
sg948
g1728
sg142
g1801
sg144
g1961
sg146
g1976
sV445
p2669
g1449
sV383
p2670
(dp2671
sV438
p2672
g1999
sV432
p2673
g2047
sV430
p2674
g2057
sV339
p2675
g2071
sV335
p2676
g2079
sV334
p2677
g2086
sV336
p2678
g2107
sV333
p2679
g2126
sV332
p2680
g2129
sV258
p2681
(dp2682
sg780
(dp2683
sg2517
(dp2684
sg946
(dp2685
sV175
p2686
(dp2687
sV173
p2688
(dp2689
sV407
p2690
(dp2691
sV101
p2692
g1500
sV406
p2693
(dp2694
sg242
(dp2695
sg388
(dp2696
sV183
p2697
(dp2698
sV347
p2699
g952
sV186
p2700
(dp2701
sg192
g2168
sV188
p2702
(dp2703
sV273
p2704
g1334
sV185
p2705
(dp2706
sg2381
g2197
sV229
p2707
(dp2708
sV228
p2709
(dp2710
sV164
p2711
(dp2712
sV93
p2713
g2233
sV161
p2714
(dp2715
sV162
p2716
(dp2717
sg2185
(dp2718
sg1990
(dp2719
sV390
p2720
(dp2721
sg872
(dp2722
sV150
p2723
(dp2724
sV153
p2725
(dp2726
sV152
p2727
(dp2728
sV155
p2729
(dp2730
sV154
p2731
(dp2732
sg2139
(dp2733
sV159
p2734
(dp2735
sV278
p2736
g1373
sV238
p2737
g2287
sV235
p2738
g2319
sV236
p2739
g2323
sV237
p2740
g2326
sg1151
g2370
sV231
p2741
g2418
sV233
p2742
g2460
sV49
p2743
(dp2744
sV259
p2745
(dp2746
sg908
(dp2747
sV322
p2748
(dp2749
sV323
p2750
(dp2751
sV320
p2752
(dp2753
sV321
p2754
(dp2755
sV326
p2756
(dp2757
sV327
p2758
(dp2759
sV328
p2760
(dp2761
sV329
p2762
(dp2763
sV146
p2764
g2534
sV200
p2765
(dp2766
sg486
(dp2767
sV205
p2768
(dp2769
sV204
p2770
(dp2771
sV207
p2772
(dp2773
sg498
(dp2774
sV149
p2775
(dp2776
sV77
p2777
(dp2778
sV74
p2779
(dp2780
sV73
p2781
(dp2782
sV70
p2783
(dp2784
sg532
(dp2785
sg682
(dp2786
sV352
p2787
(dp2788
sV351
p2789
(dp2790
sV350
p2791
(dp2792
sg696
(dp2793
ssg240
(dp2794
g934
(dp2795
sg196
g2198
sg2159
(dp2796
sg936
(dp2797
sg2216
(dp2798
ssg242
(dp2799
g2725
(dp2800
sg1024
(dp2801
sg2399
g1135
sg2139
(dp2802
sg1109
g1272
sg1009
(dp2803
sV164
p2804
(dp2805
sg774
(dp2806
sg1172
(dp2807
sg2561
(dp2808
sg2563
(dp2809
sg946
(dp2810
sV173
p2811
(dp2812
sg2742
g2462
sg1151
g2373
sg908
(dp2813
sg934
(dp2814
sg2527
(dp2815
sg192
g2170
sg1049
(dp2816
sV146
p2817
g2536
sg238
g2695
sg1463
(dp2818
sg929
(dp2819
sg94
g1406
sg2705
(dp2820
sg2313
(dp2821
sV149
p2822
(dp2823
sg2381
g2200
sg380
(dp2824
sg2543
(dp2825
sV128
p2826
(dp2827
sg1005
g1565
sg2185
(dp2828
sg760
(dp2829
sg1162
(dp2830
sg1990
(dp2831
sg2668
g1654
sg766
(dp2832
sg948
g1709
sg142
g1805
sg144
g1963
sg146
g1978
sV63
p2833
(dp2834
sg1246
(dp2835
ssg244
(dp2836
g1087
(dp2837
sg2378
(dp2838
ssg246
(dp2839
g698
(dp2840
sg710
(dp2841
sg986
(dp2842
sV132
p2843
(dp2844
sV62
p2845
(dp2846
sV275
p2847
g1356
sg270
(dp2848
sV230
p2849
g2376
sV231
p2850
g2421
sg1087
(dp2851
sV344
p2852
g930
sg927
(dp2853
sV408
p2854
(dp2855
sV147
p2856
g2629
sV145
p2857
g2819
sV205
p2858
(dp2859
sg98
g1428
sV124
p2860
(dp2861
sV125
p2862
(dp2863
sV229
p2864
(dp2865
sg536
(dp2866
sV248
p2867
(dp2868
sV220
p2869
(dp2870
sg948
g1771
sg988
g1967
sV376
p2871
(dp2872
ssg248
(dp2873
g934
(dp2874
sg1246
(dp2875
sg2388
(dp2876
sV186
p2877
(dp2878
sg1087
(dp2879
ssg250
(dp2880
g244
g2838
sg430
(dp2881
sg1087
(dp2882
sg934
(dp2883
sV137
p2884
(dp2885
sV229
p2886
(dp2887
sV230
p2888
g2379
ssg252
(dp2889
g934
(dp2890
sV186
p2891
(dp2892
ssg254
(dp2893
g2257
g2776
sV145
p2894
g2823
sV412
p2895
(dp2896
sV443
p2897
g1411
sV301
p2898
(dp2899
sV440
p2900
g1434
sg988
g1971
sg986
(dp2901
sV323
p2902
(dp2903
sV186
p2904
(dp2905
sV325
p2906
(dp2907
sV324
p2908
(dp2909
sV439
p2910
g2001
sg934
(dp2911
sV238
p2912
g2290
sV93
p2913
g2238
sV429
p2914
(dp2915
sV334
p2916
g2087
sV154
p2917
(dp2918
ssg256
(dp2919
V216
p2920
(dp2921
sV217
p2922
(dp2923
sV211
p2924
(dp2925
sV164
p2926
(dp2927
sV136
p2928
(dp2929
sV135
p2930
(dp2931
sV167
p2932
(dp2933
sV345
p2934
g2136
sV405
p2935
(dp2936
sV404
p2937
(dp2938
sV340
p2939
g963
sg722
(dp2940
sV342
p2941
g987
sV334
p2942
g2091
sV283
p2943
(dp2944
sV348
p2945
g1010
sV349
p2946
g1019
sV409
p2947
(dp2948
sV408
p2949
(dp2950
sV368
p2951
(dp2952
sV122
p2953
(dp2954
sV125
p2955
(dp2956
sV126
p2957
(dp2958
sV128
p2959
(dp2960
sV269
p2961
(dp2962
sV365
p2963
(dp2964
sV59
p2965
(dp2966
sV58
p2967
(dp2968
sV54
p2969
(dp2970
sV62
p2971
(dp2972
sV53
p2973
(dp2974
sV424
p2975
(dp2976
sV414
p2977
(dp2978
sV416
p2979
(dp2980
sV417
p2981
(dp2982
sV360
p2983
(dp2984
sV298
p2985
g1030
sV413
p2986
(dp2987
sV371
p2988
(dp2989
sV370
p2990
(dp2991
sV373
p2992
(dp2993
sg40
g1094
sV418
p2994
(dp2995
sg560
(dp2996
sV376
p2997
(dp2998
sV318
p2999
(dp3000
sV199
p3001
g1139
sV198
p3002
g1176
sg482
(dp3003
sg58
g1220
sg60
g1222
sV316
p3004
(dp3005
sV390
p3006
(dp3007
sV110
p3008
(dp3009
sV399
p3010
(dp3011
sV428
p3012
(dp3013
sg582
(dp3014
sg368
(dp3015
sV364
p3016
(dp3017
sV422
p3018
(dp3019
sV425
p3020
(dp3021
sg832
(dp3022
sV427
p3023
(dp3024
sV426
p3025
(dp3026
sV449
p3027
g1392
sV300
p3028
(dp3029
sV441
p3030
g1426
sV303
p3031
(dp3032
sV445
p3033
g1444
sV444
p3034
g1451
sV245
p3035
(dp3036
sV244
p3037
(dp3038
sV108
p3039
g1459
sV383
p3040
(dp3041
sV384
p3042
(dp3043
sV306
p3044
(dp3045
sV386
p3046
(dp3047
sV387
p3048
(dp3049
sV248
p3050
(dp3051
sV381
p3052
(dp3053
sV33
p3054
g1656
sV37
p3055
g1808
sV36
p3056
g1815
sg376
(dp3057
sg150
g1994
sV437
p3058
g2019
sV299
p3059
g1064
sV432
p3060
g2045
sV430
p3061
g2055
sV431
p3062
g2063
sV335
p3063
g2080
sV451
p3064
(dp3065
sV336
p3066
g2103
sV333
p3067
g2124
sV332
p3068
g2128
sV60
p3069
(dp3070
sV258
p3071
(dp3072
sV259
p3073
(dp3074
sV66
p3075
(dp3076
sV67
p3077
(dp3078
sV68
p3079
(dp3080
sV176
p3081
(dp3082
sV175
p3083
(dp3084
sV173
p3085
(dp3086
sV162
p3087
(dp3088
sV346
p3089
g937
sV145
p3090
g2803
sV183
p3091
(dp3092
sg424
(dp3093
sV186
p3094
(dp3095
sV184
p3096
(dp3097
sV185
p3098
(dp3099
sV188
p3100
(dp3101
sV311
p3102
(dp3103
sV310
p3104
(dp3105
sV221
p3106
(dp3107
sg192
g2145
sV229
p3108
(dp3109
sV228
p3110
(dp3111
sV227
p3112
(dp3113
sV93
p3114
g2239
sg204
g2249
sV95
p3115
g2253
sV94
p3116
g2260
sV97
p3117
g2272
sV220
p3118
(dp3119
sV11
p3120
(dp3121
sV10
p3122
(dp3123
sV14
p3124
(dp3125
sV285
p3126
(dp3127
sV284
p3128
(dp3129
sV273
p3130
g1336
sV153
p3131
(dp3132
sV152
p3133
(dp3134
sV155
p3135
(dp3136
sV154
p3137
(dp3138
sV157
p3139
(dp3140
sV159
p3141
(dp3142
sV158
p3143
(dp3144
sV238
p3145
g2299
sV235
p3146
g2318
sV236
p3147
g2321
sV237
p3148
g2325
sV230
p3149
g2337
sV231
p3150
g2404
sV63
p3151
(dp3152
sV322
p3153
(dp3154
sV323
p3155
(dp3156
sV320
p3157
(dp3158
sV321
p3159
(dp3160
sV326
p3161
(dp3162
sV327
p3163
(dp3164
sV324
p3165
(dp3166
sV325
p3167
(dp3168
sV328
p3169
(dp3170
sV329
p3171
(dp3172
sV146
p3173
g2513
sV147
p3174
g2557
sV144
p3175
g2797
sV202
p3176
(dp3177
sV205
p3178
(dp3179
sV143
p3180
g2842
sV207
p3181
(dp3182
sV206
p3183
(dp3184
sV208
p3185
(dp3186
sV149
p3187
g2901
sV74
p3188
(dp3189
sg508
(dp3190
sV70
p3191
(dp3192
sV435
p3193
g2038
sV261
p3194
(dp3195
sV266
p3196
(dp3197
ssg258
(dp3198
g934
(dp3199
sV147
p3200
g2558
sg260
(dp3201
sg1156
g2515
sg929
g2844
ssg260
(dp3202
g942
g2560
sg836
(dp3203
sV60
p3204
(dp3205
sV132
p3206
g3201
sV62
p3207
(dp3208
sg268
(dp3209
sV128
p3210
(dp3211
sV365
p3212
(dp3213
sV426
p3214
(dp3215
ssg262
(dp3216
V13
p3217
(dp3218
sg1087
(dp3219
sV153
p3220
(dp3221
sg934
(dp3222
sV186
p3223
(dp3224
sV231
p3225
g2406
ssg264
(dp3226
V448
p3227
g1400
sV141
p3228
g2885
sg948
g1784
sg934
(dp3229
sV186
p3230
(dp3231
sV229
p3232
(dp3233
sg946
(dp3234
sg272
(dp3235
sV230
p3236
g2397
ssg266
(dp3237
V147
p3238
g2562
sV145
p3239
g2808
sg948
g1694
sg836
(dp3240
sg988
g1817
sg1109
g1278
sg934
(dp3241
sV62
p3242
(dp3243
sg1172
(dp3244
sV125
p3245
(dp3246
sg986
g2929
sV128
p3247
(dp3248
sV376
p3249
(dp3250
sV408
p3251
(dp3252
ssg268
(dp3253
V153
p3254
(dp3255
sg1009
g2931
sg260
g3209
sg1172
(dp3256
sg934
(dp3257
sV407
p3258
(dp3259
sV186
p3260
(dp3261
sg192
g2152
sg2066
g971
sV408
p3262
(dp3263
sV147
p3264
g2564
sV145
p3265
g2809
sV205
p3266
(dp3267
sV208
p3268
(dp3269
sV304
p3270
(dp3271
sV124
p3272
(dp3273
sV228
p3274
(dp3275
sV227
p3276
(dp3277
sV248
p3278
(dp3279
sg440
(dp3280
sV57
p3281
(dp3282
sV50
p3283
(dp3284
sV426
p3285
(dp3286
sg948
g1775
sV376
p3287
(dp3288
ssg270
(dp3289
g1333
g2566
sg929
g2848
sg1330
(dp3290
ssg272
(dp3291
g264
g3235
sg1087
(dp3292
sV230
p3293
g2351
sV229
p3294
(dp3295
ssg274
(dp3296
V218
p3297
(dp3298
ssg276
(dp3299
V155
p3300
(dp3301
sg934
(dp3302
sg2100
(dp3303
sg306
(dp3304
sV298
p3305
g1039
sV228
p3306
(dp3307
sV227
p3308
(dp3309
sg1077
(dp3310
ssg278
(dp3311
g826
(dp3312
sV155
p3313
(dp3314
sg934
(dp3315
sV186
p3316
(dp3317
sg1077
(dp3318
sV298
p3319
g1040
sV228
p3320
(dp3321
sV227
p3322
(dp3323
ssg280
(dp3324
V155
p3325
(dp3326
sg934
(dp3327
sV186
p3328
(dp3329
sg1077
(dp3330
sV298
p3331
g1041
sV228
p3332
(dp3333
sV227
p3334
(dp3335
sg726
(dp3336
ssg282
(dp3337
g934
(dp3338
sg1087
(dp3339
sg1361
(dp3340
sg1077
(dp3341
sg2364
(dp3342
ssg284
(dp3343
V18
p3344
(dp3345
sV354
p3346
(dp3347
sV352
p3348
(dp3349
sg288
(dp3350
sg2917
(dp3351
ssg286
(dp3352
g2917
(dp3353
sV23
p3354
(dp3355
sV19
p3356
(dp3357
sV18
p3358
(dp3359
sV354
p3360
(dp3361
sV352
p3362
(dp3363
ssg288
(dp3364
V20
p3365
g3350
sg2917
(dp3366
sg3358
(dp3367
sV354
p3368
(dp3369
sV353
p3370
(dp3371
sV352
p3372
(dp3373
sg520
(dp3374
ssg290
(dp3375
g446
(dp3376
sg2917
(dp3377
sg3358
(dp3378
sg686
(dp3379
sg688
(dp3380
sV21
p3381
g3355
ssg292
(dp3382
g934
(dp3383
sg1087
(dp3384
sg132
g1636
sV205
p3385
(dp3386
sg1077
(dp3387
ssg294
(dp3388
g934
(dp3389
sg200
g2223
sg1671
(dp3390
sg1077
(dp3391
ssg296
(dp3392
g942
g2691
sg1246
(dp3393
sg836
(dp3394
sg2297
(dp3395
sV135
p3396
g3259
ssg298
(dp3397
g942
g2694
sg744
(dp3398
sg836
(dp3399
sg1077
(dp3400
sg3254
(dp3401
ssg300
(dp3402
g1009
g2936
sg988
g1818
sg2543
(dp3403
ssg302
(dp3404
g986
g2938
sg238
g2572
sV186
p3405
(dp3406
sg988
g1820
sg934
(dp3407
ssg304
(dp3408
g2668
g1659
sV390
p3409
(dp3410
ssg306
(dp3411
g276
g3304
sg1100
(dp3412
sg1104
(dp3413
sg1005
g1548
sg3328
(dp3414
ssg308
(dp3415
g1100
(dp3416
sg1104
(dp3417
sg1005
g1550
sg898
(dp3418
ssg310
(dp3419
g934
(dp3420
sg2311
(dp3421
sV233
p3422
g2466
ssg312
(dp3423
g986
g2948
sg1166
g1722
sg988
g1828
sg934
(dp3424
sg1256
(dp3425
sg1218
(dp3426
sg1077
(dp3427
sg2705
(dp3428
sg1005
g1557
ssg314
(dp3429
g1164
(dp3430
sg2725
(dp3431
sg1024
(dp3432
sV155
p3433
(dp3434
sg636
(dp3435
sg2268
(dp3436
sV195
p3437
g1208
sg618
(dp3438
sg1109
g1297
sg256
g2950
sg626
(dp3439
sg774
(dp3440
sg2833
(dp3441
sg1077
(dp3442
sg2563
g3263
sg1321
(dp3443
sg946
(dp3444
sg2811
(dp3445
sV231
p3446
g2415
sV435
p3447
g2043
sV198
p3448
g1182
sV182
p3449
(dp3450
sV386
p3451
(dp3452
sg1151
g2367
sg1087
(dp3453
sg1246
(dp3454
sg208
g2265
sg934
(dp3455
sV183
p3456
(dp3457
sg582
(dp3458
sg2295
(dp3459
sV184
p3460
(dp3461
sg192
g2165
sg676
(dp3462
sg18
g957
sV188
p3463
(dp3464
sV426
p3465
(dp3466
sV146
p3467
g2532
sV147
p3468
g2581
sV227
p3469
(dp3470
sV145
p3471
g2816
sg929
g2855
sg1058
(dp3472
sV208
p3473
(dp3474
sV302
p3475
(dp3476
sg2705
(dp3477
sg2561
g3252
sg2313
(dp3478
sV444
p3479
g1456
sg196
g2212
sg2382
(dp3480
sV383
p3481
(dp3482
sV229
p3483
(dp3484
sg810
(dp3485
sg2826
(dp3486
sV129
p3487
(dp3488
sV249
p3489
(dp3490
sg1005
g1559
sg506
(dp3491
sg2185
(dp3492
sg440
(dp3493
sV12
p3494
(dp3495
sg760
(dp3496
sg1162
(dp3497
sV17
p3498
(dp3499
sV16
p3500
(dp3501
sg2668
g1666
sV18
p3502
(dp3503
sg948
g1724
sg142
g1811
sg988
g1830
sg146
g1986
sV110
p3504
(dp3505
sg2394
(dp3506
sV298
p3507
g1050
sV437
p3508
g2023
sV295
p3509
g1096
sg1990
(dp3510
sV431
p3511
g2068
ssg316
(dp3512
g2307
(dp3513
sg380
(dp3514
sg2285
(dp3515
ssg318
(dp3516
g2307
(dp3517
sg380
(dp3518
sV243
p3519
(dp3520
ssg320
(dp3521
g3468
g2606
sg602
(dp3522
sg988
g1851
sg1109
g1293
sg986
g2989
sV187
p3523
(dp3524
sg934
(dp3525
sg326
(dp3526
sg2315
g2493
ssg322
(dp3527
V147
p3528
g2608
sg988
g1852
sg1100
(dp3529
sg1246
(dp3530
sg986
g2991
sg1104
(dp3531
sg1005
g1602
ssg324
(dp3532
g986
g2993
sg934
(dp3533
sV186
p3534
(dp3535
sg988
g1854
sV52
p3536
(dp3537
ssg326
(dp3538
V371
p3539
g3526
sg664
(dp3540
sV186
p3541
(dp3542
ssg328
(dp3543
g934
(dp3544
sg3534
(dp3545
ssg330
(dp3546
V147
p3547
g2611
sg1087
(dp3548
sg1100
(dp3549
sg626
(dp3550
sg3534
(dp3551
sg1077
(dp3552
sg1104
(dp3553
ssg332
(dp3554
g3519
(dp3555
ssg334
(dp3556
g3468
g2612
sg2190
(dp3557
sg929
g2872
sg988
g1856
sg986
g2998
sg1256
(dp3558
sg927
(dp3559
sg2561
g3250
sg2563
g3288
sg934
(dp3560
sg2315
g2495
sg2311
(dp3561
sV293
p3562
g1118
sg1037
(dp3563
sg1990
(dp3564
ssg336
(dp3565
g934
(dp3566
sV147
p3567
g2619
ssg338
(dp3568
g130
g1621
sg1252
(dp3569
sg1166
g1769
sg2190
(dp3570
sg934
(dp3571
sg1246
(dp3572
sg1307
(dp3573
sg1047
(dp3574
sV395
p3575
(dp3576
sV343
p3577
g998
sV388
p3578
(dp3579
sV155
p3580
(dp3581
sg1005
g1588
sV153
p3582
(dp3583
ssg340
(dp3584
V217
p3585
(dp3586
sV212
p3587
(dp3588
sg2400
(dp3589
sV407
p3590
g3393
sV282
p3591
(dp3592
sV409
p3593
g3425
sV408
p3594
g3454
sg752
(dp3595
sV220
p3596
(dp3597
sV59
p3598
(dp3599
sV58
p3600
(dp3601
sV57
p3602
(dp3603
sV56
p3604
(dp3605
sV414
p3606
(dp3607
sg544
(dp3608
sV417
p3609
(dp3610
sV370
p3611
g3530
sV376
p3612
g3558
sg2399
g1141
sV311
p3613
(dp3614
sV190
p3615
g1247
sV193
p3616
g1257
sV270
p3617
g1306
sg72
g1313
sg868
(dp3618
sV89
p3619
(dp3620
sV111
p3621
(dp3622
sV395
p3623
(dp3624
sV277
p3625
g1370
sV119
p3626
(dp3627
sV87
p3628
(dp3629
sV85
p3630
(dp3631
sg808
(dp3632
sV422
p3633
(dp3634
sV362
p3635
(dp3636
sV427
p3637
(dp3638
sV361
p3639
(dp3640
sV442
p3641
g1421
sV304
p3642
(dp3643
sV306
p3644
(dp3645
sV244
p3646
(dp3647
sV382
p3648
(dp3649
sV385
p3650
(dp3651
sV389
p3652
(dp3653
sV101
p3654
g1497
sV39
p3655
g1622
sV38
p3656
g1637
sV33
p3657
g1657
sV30
p3658
g1796
sV439
p3659
g2003
sV114
p3660
(dp3661
sV61
p3662
(dp3663
sV174
p3664
(dp3665
sV173
p3666
(dp3667
sV171
p3668
(dp3669
sg934
(dp3670
sV186
p3671
(dp3672
sV189
p3673
(dp3674
sV202
p3675
(dp3676
sV316
p3677
(dp3678
sV99
p3679
g2194
sV168
p3680
(dp3681
sV229
p3682
(dp3683
sV228
p3684
(dp3685
sV227
p3686
(dp3687
sV90
p3688
g2224
sV166
p3689
(dp3690
sV224
p3691
(dp3692
sg212
g2279
sV13
p3693
(dp3694
sV392
p3695
g3572
sV390
p3696
(dp3697
sg738
(dp3698
sV153
p3699
(dp3700
sV155
p3701
(dp3702
sg82
g1359
sV112
p3703
(dp3704
sV230
p3705
g2393
sV231
p3706
g2405
sV233
p3707
g2435
sV49
p3708
(dp3709
sV44
p3710
(dp3711
sV147
p3712
g2620
sV203
p3713
(dp3714
sV145
p3715
g2835
sV205
p3716
(dp3717
sg248
g2875
sV208
p3718
(dp3719
ssg342
(dp3720
V217
p3721
(dp3722
sg1024
(dp3723
sV211
p3724
(dp3725
sV136
p3726
g3244
sV135
p3727
g3256
sV90
p3728
g2226
sg934
(dp3729
sV341
p3730
g982
sV342
p3731
g991
sV408
p3732
g3506
sV263
p3733
(dp3734
sV125
p3735
(dp3736
sV127
p3737
(dp3738
sV128
p3739
(dp3740
sV294
p3741
g1081
sV295
p3742
g1090
sV146
p3743
g2516
sV319
p3744
(dp3745
sV318
p3746
(dp3747
sV198
p3748
g1173
sg3437
g1201
sV197
p3749
g1217
sV316
p3750
(dp3751
sg66
g1258
sV270
p3752
g1308
sV271
p3753
g1314
sg1246
g3620
sV116
p3754
(dp3755
sV397
p3756
(dp3757
sV275
p3758
g1354
sV276
p3759
g1360
sg892
(dp3760
sV86
p3761
(dp3762
sg362
(dp3763
sV365
p3764
(dp3765
sV427
p3766
(dp3767
sV426
p3768
(dp3769
sV449
p3770
g1391
sV300
p3771
(dp3772
sV442
p3773
g1422
sV304
p3774
(dp3775
sV245
p3776
(dp3777
sV382
p3778
(dp3779
sV246
p3780
(dp3781
sV387
p3782
(dp3783
sg948
g1777
sV439
p3784
g2004
sV436
p3785
g2012
sV435
p3786
g2034
sV339
p3787
g2072
sV338
p3788
g2075
sV335
p3789
g2081
sV451
p3790
(dp3791
sV452
p3792
(dp3793
sg1077
(dp3794
sV117
p3795
(dp3796
sV392
p3797
g3573
sV344
p3798
g926
sV183
p3799
(dp3800
sV186
p3801
(dp3802
sV188
p3803
(dp3804
sV311
p3805
(dp3806
sV202
p3807
(dp3808
sV190
p3809
g1248
sV229
p3810
(dp3811
sV228
p3812
(dp3813
sV227
p3814
(dp3815
sg662
(dp3816
sV161
p3817
(dp3818
sV221
p3819
(dp3820
sV220
p3821
(dp3822
sg2190
(dp3823
sV114
p3824
(dp3825
sV391
p3826
(dp3827
sV111
p3828
(dp3829
sg876
(dp3830
sg995
(dp3831
sV154
p3832
(dp3833
sV159
p3834
(dp3835
sV277
p3836
g1368
sV230
p3837
g2395
sg228
g2427
sV233
p3838
g2437
sg1087
(dp3839
sg234
g2499
sV324
p3840
(dp3841
sV201
p3842
(dp3843
sV147
p3844
g2621
sV203
p3845
(dp3846
sV145
p3847
g2807
sg488
(dp3848
sV206
p3849
(dp3850
sg496
(dp3851
sV208
p3852
(dp3853
sV70
p3854
(dp3855
ssg344
(dp3856
g948
g1692
sg925
g3757
sg2419
(dp3857
ssg346
(dp3858
g1100
(dp3859
sV186
p3860
(dp3861
sg1104
(dp3862
sg934
(dp3863
ssg348
(dp3864
V153
p3865
(dp3866
sV155
p3867
(dp3868
sg1166
g1695
sg999
(dp3869
sg997
g3576
sg1246
g3624
sg1361
(dp3870
sV298
p3871
g1031
sV343
p3872
g1002
sg1262
(dp3873
sV427
p3874
(dp3875
ssg350
(dp3876
g1100
(dp3877
sg904
(dp3878
sg1104
(dp3879
sg1005
g1518
ssg352
(dp3880
V216
p3881
(dp3882
sV147
p3883
g2622
sV210
p3884
(dp3885
sV156
p3886
(dp3887
sV300
p3888
(dp3889
sg1087
(dp3890
sg934
(dp3891
sV272
p3892
g1322
sV273
p3893
g1338
sV186
p3894
(dp3895
sg2311
(dp3896
sV408
p3897
g3443
sV83
p3898
(dp3899
sV80
p3900
(dp3901
sV81
p3902
(dp3903
sV230
p3904
g2345
sV84
p3905
(dp3906
sV426
p3907
(dp3908
ssg354
(dp3909
g934
(dp3910
sg1337
g3899
sg1087
(dp3911
sg1326
g2346
sg2311
(dp3912
ssg356
(dp3913
g986
g3011
sg156
g2022
sg2705
(dp3914
sg988
g1864
sg1051
g2624
ssg358
(dp3915
g886
(dp3916
sg1087
(dp3917
sg934
(dp3918
sg74
g1325
sg76
g1340
sV186
p3919
(dp3920
sg2311
(dp3921
sV229
p3922
(dp3923
sg1337
g3903
sV230
p3924
g2348
sg1328
(dp3925
sg232
g2439
ssg360
(dp3926
V157
p3927
(dp3928
sg1166
g1706
sV89
p3929
g3762
sg1077
(dp3930
sV165
p3931
(dp3932
sV268
p3933
(dp3934
ssg362
(dp3935
V153
p3936
(dp3937
sV205
p3938
(dp3939
sV30
p3940
g1797
sV214
p3941
(dp3942
sg504
(dp3943
sV89
p3944
g3763
sg1077
(dp3945
sg1246
g3629
ssg364
(dp3946
V233
p3947
g2487
sg1087
(dp3948
sg934
(dp3949
sV272
p3950
g1329
sV273
p3951
g1342
sV186
p3952
(dp3953
sg2311
(dp3954
sV229
p3955
(dp3956
sg1337
g3906
sV81
p3957
g3925
sV230
p3958
g2352
sg366
(dp3959
ssg366
(dp3960
V230
p3961
g2353
sg1087
(dp3962
sV272
p3963
g1318
sg934
(dp3964
sg1246
g3631
sV273
p3965
g1343
sV186
p3966
(dp3967
sg2311
(dp3968
sV229
p3969
(dp3970
sg800
(dp3971
sg364
g3959
sV233
p3972
g2441
ssg368
(dp3973
g988
g1865
sV193
p3974
g1261
sg986
g3015
sg626
(dp3975
sg2295
(dp3976
sg380
(dp3977
sV228
p3978
(dp3979
sg1463
(dp3980
sV220
p3981
(dp3982
sV427
p3983
(dp3984
sg1077
(dp3985
ssg370
(dp3986
g2417
g2667
sg948
g1764
sg988
g1882
sg986
g3036
sg626
(dp3987
sg1172
g3777
sV238
p3988
g2292
sg380
(dp3989
sV243
p3990
(dp3991
sg2307
(dp3992
sV426
p3993
(dp3994
ssg372
(dp3995
g3254
(dp3996
sV154
p3997
(dp3998
sg1246
g3647
sg988
g1883
sg986
g3038
sg2293
(dp3999
sV186
p4000
(dp4001
sg380
(dp4002
ssg374
(dp4003
g934
(dp4004
sV147
p4005
g2657
sV186
p4006
(dp4007
ssg376
(dp4008
g1156
g2542
sg1009
g3057
sg942
g2659
sg948
g1792
sg934
(dp4009
sg1172
g3781
sg2527
(dp4010
sg1077
(dp4011
ssg378
(dp4012
g238
g2660
sg2307
(dp4013
sg626
(dp4014
ssg380
(dp4015
V153
p4016
(dp4017
sg3997
(dp4018
sV334
p4019
g2090
sV238
p4020
g2298
sg650
(dp4021
sg2283
(dp4022
sV407
p4023
g3395
sg582
(dp4024
sV186
p4025
(dp4026
sg368
g3977
sV369
p4027
(dp4028
sV426
p4029
(dp4030
sV147
p4031
g2661
sV145
p4032
g2824
sV443
p4033
g1415
sV245
p4034
g3989
sV244
p4035
g4002
sV243
p4036
(dp4037
sV429
p4038
(dp4039
sV249
p4040
(dp4041
sg674
(dp4042
sV451
p4043
(dp4044
sg316
g3514
sg318
g3518
sV355
p4045
(dp4046
sV410
p4047
(dp4048
sV412
p4049
(dp4050
ssg382
(dp4051
g238
g2663
sg626
(dp4052
sg192
g2178
sg384
(dp4053
sV379
p4054
g3515
sV378
p4055
g3520
sg380
g4037
sg2295
(dp4056
sg722
(dp4057
sg934
(dp4058
sV238
p4059
g2286
sg2185
(dp4060
sg2291
g3991
sg332
g3555
sg1077
(dp4061
ssg384
(dp4062
V227
p4063
(dp4064
sV186
p4065
(dp4066
sV243
p4067
g4053
sV228
p4068
(dp4069
ssg386
(dp4070
V12
p4071
(dp4072
sV17
p4073
(dp4074
sV16
p4075
(dp4076
sV18
p4077
(dp4078
sV182
p4079
(dp4080
sg2293
(dp4081
sV186
p4082
(dp4083
sg380
g4041
sV179
p4084
(dp4085
sg676
(dp4086
sV176
p4087
(dp4088
sg1049
g3490
ssg388
(dp4089
g3200
g2696
sg929
g2868
sg988
g1886
sg1109
g1281
sg986
g3051
sg2563
g3279
ssg390
(dp4090
g934
(dp4091
sg1223
(dp4092
sg3437
g1194
ssg392
(dp4093
V147
p4094
g2575
sg988
g1895
sg934
(dp4095
sg925
g3791
sV186
p4096
(dp4097
sg2297
g4044
sg986
g3065
sg618
(dp4098
ssg394
(dp4099
g934
(dp4100
sg925
g3793
sV186
p4101
(dp4102
sV231
p4103
g2403
ssg396
(dp4104
g458
(dp4105
sg2313
(dp4106
sg12
g932
ssg398
(dp4107
g934
(dp4108
sV230
p4109
g2342
sV249
p4110
g4085
ssg400
(dp4111
V182
p4112
(dp4113
sg1087
(dp4114
sV230
p4115
g2336
sV229
p4116
(dp4117
ssg402
(dp4118
V230
p4119
g2338
sg1087
(dp4120
sV331
p4121
g2111
sV229
p4122
(dp4123
ssg404
(dp4124
V155
p4125
(dp4126
sV198
p4127
g1177
sV310
p4128
(dp4129
sg1009
g3082
sV137
p4130
g3234
sg4079
(dp4131
sV295
p4132
g1095
sg934
(dp4133
sg16
g947
sg2527
(dp4134
sg676
(dp4135
sV188
p4136
(dp4137
sV408
p4138
g3444
sV146
p4139
g2519
sV147
p4140
g2685
sV145
p4141
g2810
sV205
p4142
(dp4143
sV302
p4144
(dp4145
sg4110
g4088
sg1005
g1526
sg444
(dp4146
sV16
p4147
(dp4148
sg988
g1907
sg684
(dp4149
sV298
p4150
g1032
sV437
p4151
g2021
sV435
p4152
g2039
ssg406
(dp4153
g986
g3084
sg1100
(dp4154
sg988
g1908
sg942
g2687
ssg408
(dp4155
g802
(dp4156
sg1100
(dp4157
sg2333
(dp4158
sV107
p4159
g1528
sg934
(dp4160
sg1246
g3665
sg3534
(dp4161
sg1069
(dp4162
sg1003
(dp4163
sV172
p4164
(dp4165
sg518
(dp4166
ssg410
(dp4167
V153
p4168
(dp4169
sV155
p4170
(dp4171
sV309
p4172
(dp4173
sg2333
(dp4174
sV337
p4175
g2099
sV191
p4176
g1243
sg986
g3086
sV388
p4177
(dp4178
sg1246
g3667
sV396
p4179
g3862
sV276
p4180
g1364
sV394
p4181
g3879
sV174
p4182
g4163
sV230
p4183
g2349
sg802
(dp4184
sV435
p4185
g2041
sV79
p4186
(dp4187
sV48
p4188
(dp4189
sV46
p4190
(dp4191
sV47
p4192
(dp4193
sV43
p4194
(dp4195
sV40
p4196
(dp4197
sV172
p4198
(dp4199
sV289
p4200
(dp4201
sV288
p4202
(dp4203
sV96
p4204
g2278
sV186
p4205
(dp4206
sV402
p4207
g3413
sV401
p4208
g3417
sg24
g1004
sV280
p4209
(dp4210
sV105
p4211
g1617
sV285
p4212
(dp4213
sV287
p4214
(dp4215
sV408
p4216
g3445
sV146
p4217
g2521
sg2056
g2689
sV145
p4218
g2812
sV368
p4219
(dp4220
sV426
p4221
(dp4222
sV229
p4223
(dp4224
sV264
p4225
(dp4226
sV102
p4227
g1476
sV103
p4228
g1483
sV106
p4229
g1504
sg4159
g1530
sV104
p4230
g1613
sg518
(dp4231
sg1069
(dp4232
sV220
p4233
(dp4234
sV365
p4235
(dp4236
sg70
g1310
sV414
p4237
(dp4238
sV298
p4239
g1036
sV413
p4240
(dp4241
sV370
p4242
g3531
sV434
p4243
g2027
sV286
p4244
(dp4245
sV292
p4246
g1105
sV374
p4247
g3553
sV290
p4248
g1123
sV291
p4249
g1129
ssg412
(dp4250
V155
p4251
(dp4252
sg1087
(dp4253
sg1100
(dp4254
sV264
p4255
(dp4256
sV174
p4257
g4165
sg1104
g4199
sg2391
(dp4258
ssg414
(dp4259
V215
p4260
(dp4261
sV155
p4262
(dp4263
sg1166
g1701
sg3795
(dp4264
sV193
p4265
g1264
sV376
p4266
g3563
sV381
p4267
(dp4268
sg1256
g3669
sV186
p4269
(dp4270
sV187
p4271
(dp4272
sV298
p4273
g1038
sV228
p4274
(dp4275
sV227
p4276
(dp4277
sV389
p4278
(dp4279
sV435
p4280
g2042
sV427
p4281
(dp4282
sV233
p4283
g2440
ssg416
(dp4284
g626
(dp4285
sg2388
(dp4286
sg2159
(dp4287
sg2139
(dp4288
sg192
g2155
ssg418
(dp4289
g444
(dp4290
sg4147
(dp4291
sV176
p4292
g4131
sg934
(dp4293
sg684
(dp4294
sV186
p4295
(dp4296
sV240
p4297
g4022
sg400
g4113
sg676
(dp4298
sV238
p4299
g2284
sg386
g4080
sV257
p4300
(dp4301
sg1049
g3450
ssg420
(dp4302
g1156
g2526
sg4005
g2698
sg948
g1712
sg836
(dp4303
sg988
g1910
sg934
(dp4304
sg1172
g3800
sV186
p4305
(dp4306
sg1009
g3092
sg2066
g965
sg1087
(dp4307
sg1049
g3457
ssg422
(dp4308
g1087
(dp4309
sg184
g2118
ssg424
(dp4310
g934
(dp4311
sg936
g3093
sg2295
(dp4312
ssg426
(dp4313
g1223
(dp4314
sg1024
(dp4315
sg2400
(dp4316
sV211
p4317
(dp4318
sV219
p4319
(dp4320
sg1009
g3095
sg660
(dp4321
sg262
g3224
sg264
g3231
sg2563
g3261
sV24
p4322
g3303
sV25
p4323
g3317
sV26
p4324
g3329
sV27
p4325
g3340
sg206
g2255
sV29
p4326
g3390
sg2485
(dp4327
sg718
(dp4328
sg720
(dp4329
sV346
p4330
g939
sV347
p4331
g951
sg2066
g969
sg722
(dp4332
sV342
p4333
g993
sV334
p4334
g2089
sV280
p4335
(dp4336
sV283
p4337
(dp4338
sV163
p4339
(dp4340
sg732
(dp4341
sV284
p4342
(dp4343
sg736
(dp4344
sV408
p4345
g3459
sg522
(dp4346
sg742
(dp4347
sg744
(dp4348
sV260
p4349
(dp4350
sV124
p4351
(dp4352
sV127
p4353
(dp4354
sV128
p4355
(dp4356
sg540
(dp4357
sV269
p4358
(dp4359
sV58
p4360
(dp4361
sg768
(dp4362
sg772
(dp4363
sg778
(dp4364
sg1100
(dp4365
sV378
p4366
g3517
sV416
p4367
(dp4368
sg548
(dp4369
sg30
g1048
sV299
p4370
g1063
sV145
p4371
g2815
sV373
p4372
g3535
sg326
g3542
sg42
g1103
sV293
p4373
g1113
sg46
g1122
sV376
p4374
g3559
sV146
p4375
g2528
sV319
p4376
(dp4377
sV318
p4378
(dp4379
sg2399
g1143
sV198
p4380
g1175
sV147
p4381
g2701
sg3437
g1205
sg568
(dp4382
sV197
p4383
g1219
sg572
(dp4384
sV317
p4385
(dp4386
sg64
g1250
sV193
p4387
g1260
sV314
p4388
(dp4389
sV115
p4390
(dp4391
sV392
p4392
g3574
sg3795
(dp4393
sg342
g3802
sg2407
(dp4394
sg346
g3861
sV113
p4395
(dp4396
sg642
(dp4397
sg1337
g3895
sV279
p4398
g1385
sV313
p4399
(dp4400
sg358
g3920
sg802
(dp4401
sg1328
g3953
sg366
g3967
sV379
p4402
g3513
sV251
p4403
(dp4404
sg492
(dp4405
sV173
p4406
g4206
sg208
g2262
sV300
p4407
(dp4408
sg582
(dp4409
sg102
g1438
sV254
p4410
(dp4411
sg368
g3976
sV365
p4412
(dp4413
sV363
p4414
(dp4415
sg1646
(dp4416
sV426
p4417
(dp4418
sV308
p4419
(dp4420
sV449
p4421
g1395
sV303
p4422
(dp4423
sV412
p4424
(dp4425
sV443
p4426
g1414
sV442
p4427
g1424
sV302
p4428
(dp4429
sV440
p4430
g1433
sg836
(dp4431
sg104
g1442
sg2313
(dp4432
sV307
p4433
(dp4434
sV245
p4435
g3992
sV244
p4436
g4001
sV247
p4437
g4007
sV109
p4438
g1469
sV241
p4439
g4013
sg2311
(dp4440
sg382
g4056
sg384
g4066
sg114
g1474
sg116
g1481
sV167
p4441
(dp4442
sg122
g1502
sV294
p4443
g1083
sg126
g1611
sg128
g1616
sg604
(dp4444
sg130
g1624
sV295
p4445
g1092
sV383
p4446
(dp4447
sV381
p4448
(dp4449
sg136
g1672
sg1166
g1715
sV382
p4450
(dp4451
sV374
p4452
g3551
sV246
p4453
g4010
sV438
p4454
g1997
sV439
p4455
g2005
sV436
p4456
g2014
sV384
p4457
(dp4458
sV435
p4459
g2036
sg380
g4026
sV338
p4460
g2077
sg174
g2082
sV451
p4461
g4097
sg394
g4102
sV336
p4462
g2105
sg4121
g2113
sV330
p4463
g2120
sg188
g2130
sV60
p4464
(dp4465
sV61
p4466
(dp4467
sV62
p4468
(dp4469
sV259
p4470
(dp4471
sg2517
(dp4472
sg634
(dp4473
sg636
(dp4474
sg638
(dp4475
sV252
p4476
(dp4477
sV176
p4478
g4134
sV174
p4479
g4161
sV256
p4480
(dp4481
sg118
g1491
sg1037
g4270
sV170
p4482
g4287
sg10
g928
sV345
p4483
g2135
sg4110
g4083
sg2705
(dp4484
sg1246
g3672
sV253
p4485
(dp4486
sg1005
g1546
sg4112
g4296
sV183
p4487
g4306
sg424
g4312
sV162
p4488
(dp4489
sV187
p4490
(dp4491
sg430
(dp4492
sV194
p4493
g1212
sg434
(dp4494
sV311
p4495
(dp4496
sV341
p4497
g984
sV386
p4498
(dp4499
sV196
p4500
g1226
sV221
p4501
(dp4502
sg210
g2274
sg1028
g1235
sg192
g2160
sg68
g1287
sV402
p4503
g3414
sV99
p4504
g2192
sg196
g2204
sV315
p4505
(dp4506
sV229
p4507
(dp4508
sV228
p4509
(dp4510
sV227
p4511
(dp4512
sV226
p4513
(dp4514
sg2006
g2241
sV224
p4515
(dp4516
sg668
(dp4517
sV161
p4518
(dp4519
sV387
p4520
(dp4521
sV96
p4522
g2280
sV11
p4523
(dp4524
sg440
(dp4525
sV220
p4526
(dp4527
sV14
p4528
(dp4529
sV348
p4530
g1011
sg246
g2853
sV272
p4531
g1320
sV116
p4532
(dp4533
sV409
p4534
g3426
sg80
g1355
sV151
p4535
(dp4536
sV150
p4537
(dp4538
sV153
p4539
(dp4540
sg878
(dp4541
sg880
(dp4542
sV395
p4543
g3870
sg2268
(dp4544
sV159
p4545
(dp4546
sg602
(dp4547
sg988
g1912
sg214
g2296
sV239
p4548
g2308
sV389
p4549
(dp4550
sg1033
g2360
sV231
p4551
g2413
sV276
p4552
g1362
sg2315
g2445
sV375
p4553
g3545
sg906
(dp4554
sg910
(dp4555
sg912
(dp4556
sg914
(dp4557
sg918
(dp4558
sV324
p4559
(dp4560
sV437
p4561
g2020
sV201
p4562
(dp4563
sV200
p4564
(dp4565
sV203
p4566
(dp4567
sV202
p4568
(dp4569
sg3385
(dp4570
sV204
p4571
(dp4572
sV140
p4573
g2878
sV209
p4574
(dp4575
sV208
p4576
(dp4577
sg252
g2892
sg2822
g2905
sV255
p4578
(dp4579
sV76
p4580
(dp4581
sg504
(dp4582
sV74
p4583
(dp4584
sg510
(dp4585
sg512
(dp4586
sV68
p4587
(dp4588
sV154
p4589
(dp4590
sg516
(dp4591
sg518
(dp4592
sV144
p4593
g2796
sV121
p4594
(dp4595
sV122
p4596
(dp4597
sV404
p4598
g3406
sV357
p4599
(dp4600
sV267
p4601
(dp4602
sV337
p4603
g2101
sV431
p4604
g2062
sg694
(dp4605
sV169
p4606
(dp4607
ssg428
(dp4608
g1990
(dp4609
sg2313
(dp4610
sg1109
g1289
sg934
(dp4611
sg3469
(dp4612
sV186
p4613
g4491
sg2311
(dp4614
sV185
p4615
(dp4616
sV371
p4617
g3524
sg1037
g4272
sV233
p4618
g2447
ssg430
(dp4619
g1156
g2530
sg1009
g3097
sg92
g1401
sV205
p4620
(dp4621
sg250
g2881
sg948
g1717
sg988
g1914
sg934
(dp4622
sV346
p4623
g941
sV186
p4624
g4492
sg1979
(dp4625
sg1049
g3461
sg1005
g1567
sV426
p4626
(dp4627
ssg432
(dp4628
V147
p4629
g2706
sV153
p4630
(dp4631
sV145
p4632
g2820
sV187
p4633
g4616
sg2315
g2449
sV427
p4634
(dp4635
sg988
g1915
sg934
(dp4636
sV186
p4637
g4484
sg2311
(dp4638
sg986
g3099
sV399
p4639
g3914
sV422
p4640
(dp4641
sV409
p4642
g3428
sV408
p4643
g3477
ssg434
(dp4644
g4005
g2703
sg1087
(dp4645
sg934
(dp4646
sg925
g3804
sV186
p4647
g4494
sg1077
(dp4648
sg1009
g3101
sg946
g4137
sg1049
g3464
ssg436
(dp4649
V166
p4650
(dp4651
sg1256
g3674
ssg438
(dp4652
g936
g3121
sg440
(dp4653
sg1062
g4524
sg2066
g955
ssg440
(dp4654
g438
g4653
sV146
p4655
g2537
sV300
p4656
(dp4657
sV431
p4658
g2059
sg936
g3123
sV186
p4659
g4525
sV135
p4660
g3280
sg2064
(dp4661
sV426
p4662
(dp4663
sV408
p4664
g3493
ssg442
(dp4665
V376
p4666
g3557
sg934
(dp4667
sV205
p4668
(dp4669
sg1166
g1765
sg1246
g3694
sV99
p4670
g2191
sV392
p4671
g3570
sV382
p4672
(dp4673
sg262
g3218
sV89
p4674
g3823
sV391
p4675
(dp4676
sV212
p4677
(dp4678
sV224
p4679
(dp4680
sV427
p4681
(dp4682
sV220
p4683
(dp4684
ssg444
(dp4685
g418
g4290
sg404
g4146
sg452
(dp4686
sg4110
g4072
sg1049
g3495
ssg446
(dp4687
g2917
(dp4688
sg290
g3376
sV356
p4689
(dp4690
sV353
p4691
(dp4692
sV352
p4693
(dp4694
sg520
(dp4695
ssg448
(dp4696
V376
p4697
g3564
sV147
p4698
g2719
sV145
p4699
g2831
sg948
g1767
sg988
g1924
sg1109
g1274
sg986
g3125
sg1423
g4529
sV411
p4700
(dp4701
sV408
p4702
g3510
sV166
p4703
(dp4704
sV34
p4705
g1991
sV187
p4706
g4609
ssg450
(dp4707
g676
(dp4708
sg684
(dp4709
sg4110
g4074
sg1049
g3499
ssg452
(dp4710
g444
g4686
sg456
(dp4711
sV182
p4712
g4291
sV176
p4713
g4148
sg4110
g4076
sg1049
g3501
ssg454
(dp4714
g3358
(dp4715
sg684
(dp4716
sg2917
(dp4717
sg286
g3357
sV352
p4718
(dp4719
ssg456
(dp4720
g284
g3345
sg2917
(dp4721
sV22
p4722
g3367
sV23
p4723
g3378
sV19
p4724
g4715
sg4147
g4711
sV354
p4725
(dp4726
sV352
p4727
(dp4728
sg1049
g3503
sg4110
g4078
sV21
p4729
g3359
ssg458
(dp4730
g396
g4105
ssg460
(dp4731
g986
g3154
sV147
p4732
g2749
sg988
g1948
ssg462
(dp4733
g986
g3156
sV147
p4734
g2751
sg934
(dp4735
sg988
g1949
sg1410
g2903
ssg464
(dp4736
g986
g3158
sV147
p4737
g2753
sg988
g1950
ssg466
(dp4738
g986
g3160
sg4732
g2755
sg988
g1951
ssg468
(dp4739
g986
g3162
sV147
p4740
g2757
sg988
g1952
ssg470
(dp4741
g986
g3164
sV147
p4742
g2759
sg988
g1953
ssg472
(dp4743
g986
g3166
sg988
g1954
sg2822
g2909
sg934
(dp4744
sg925
g3841
sg992
g4560
ssg474
(dp4745
g986
g3168
sg988
g1955
sg2822
g2907
ssg476
(dp4746
g986
g3170
sg4742
g2761
sg988
g1956
ssg478
(dp4747
g986
g3172
sV147
p4748
g2763
sg988
g1957
ssg480
(dp4749
g934
(dp4750
sg925
g3843
sg1423
g4563
sg1646
(dp4751
sg1330
(dp4752
ssg482
(dp4753
g1009
g3003
sg1158
g2766
sg3437
g1192
sg1218
g4565
ssg484
(dp4754
g934
(dp4755
sg1256
g3714
sg925
g3846
sV186
p4756
g4567
ssg486
(dp4757
g3468
g2767
sg2400
(dp4758
sg948
g1730
sg988
g1917
sg986
g3177
sg1256
g3676
sg925
g3808
sg1259
g4569
sg934
(dp4759
sg1646
(dp4760
sg1054
(dp4761
ssg488
(dp4762
g1024
(dp4763
sg706
(dp4764
sg3437
g1188
sV193
p4765
g1253
sg988
g1965
sg1009
g3179
sV392
p4766
g3569
sg3795
(dp4767
sg342
g3848
sV397
p4768
g3857
sg1077
(dp4769
sg2563
g3267
sV68
p4770
(dp4771
sg946
g4143
sV230
p4772
g2375
sV231
p4773
g2420
sg3838
g2464
sg1087
(dp4774
sg292
g3386
sg362
g3939
sg934
(dp4775
sV186
p4776
g4570
sg430
g4621
sV282
p4777
(dp4778
sV427
p4779
(dp4780
sg3468
g2769
sV227
p4781
(dp4782
sg929
g2859
sg2422
(dp4783
sg836
(dp4784
sV263
p4785
(dp4786
sV229
p4787
(dp4788
sV228
p4789
(dp4790
sg2826
(dp4791
sg3728
g2222
sV269
p4792
(dp4793
sg2485
(dp4794
sg2185
(dp4795
sg2190
g4669
sg1166
g1732
sg774
(dp4796
sg2833
(dp4797
sg1246
g3717
ssg490
(dp4798
g942
g2771
sg948
g1734
sg934
(dp4799
sg2146
(dp4800
sV186
p4801
g4572
sg2311
(dp4802
ssg492
(dp4803
V147
p4804
g2773
sg3437
g1190
sg1166
g1736
sg848
(dp4805
sg714
(dp4806
sg936
g3182
sg426
g4405
sg1077
(dp4807
sg846
(dp4808
sg934
(dp4809
sg850
(dp4810
sg226
g2377
sg1087
(dp4811
ssg494
(dp4812
g986
g3184
sg948
g1738
sg2394
g3850
sg988
g1968
sg1087
(dp4813
ssg496
(dp4814
g925
g3851
sV186
p4815
g4575
ssg498
(dp4816
V316
p4817
(dp4818
sg1009
g3186
sg1246
g3719
sg925
g3853
sg1077
(dp4819
sg2563
g3269
sV250
p4820
(dp4821
sV119
p4822
(dp4823
sV231
p4824
g2423
sg934
(dp4825
sg2527
g4577
sV421
p4826
(dp4827
sV427
p4828
(dp4829
sV426
p4830
(dp4831
sg4381
g2774
sV205
p4832
g4783
sg836
(dp4833
sV266
p4834
(dp4835
sg2185
(dp4836
sg1166
g1740
sg988
g1970
sV408
p4837
g3474
ssg500
(dp4838
g1051
g2778
sg1005
g1573
sg516
(dp4839
sg1077
(dp4840
ssg502
(dp4841
g1794
(dp4842
sg934
(dp4843
sg1047
g4581
ssg504
(dp4844
V87
p4845
g3943
sg934
(dp4846
sV186
p4847
g4582
sV228
p4848
(dp4849
sV227
p4850
(dp4851
sg1005
g1592
ssg506
(dp4852
g936
g3189
sg1387
g2780
sV408
p4853
g3491
sg2066
g977
sg4096
g4584
ssg508
(dp4854
g1009
g3190
sg2133
g2782
sV349
p4855
g1021
sV426
p4856
(dp4857
ssg510
(dp4858
g934
(dp4859
sg1437
g4585
ssg512
(dp4860
g934
(dp4861
sg1441
g4586
ssg514
(dp4862
V147
p4863
g2784
sg2725
(dp4864
sg948
g1755
sg988
g1973
sg986
g3192
sg1172
g3855
sg934
(dp4865
ssg516
(dp4866
g934
(dp4867
sg500
g4839
sg1100
(dp4868
sV186
p4869
g4591
sV228
p4870
(dp4871
sV227
p4872
(dp4873
sg1003
g4187
ssg518
(dp4874
g1026
(dp4875
sV41
p4876
(dp4877
sg1100
(dp4878
sg999
(dp4879
sV186
p4880
g4592
sV174
p4881
g4166
sV173
p4882
g4231
sg1005
g1569
ssg520
(dp4883
V353
p4884
(dp4885
sV15
p4886
g4695
sg2917
(dp4887
sV22
p4888
g3374
ssg522
(dp4889
g34
g1067
sV365
p4890
(dp4891
sV186
p4892
g4346
sg2311
(dp4893
sV233
p4894
g2471
ssg524
(dp4895
g662
(dp4896
sg2159
g4595
sg1077
(dp4897
ssg526
(dp4898
V211
p4899
(dp4900
sg1087
(dp4901
sg988
g1832
sg986
g2954
sg1218
g4597
sV229
p4902
(dp4903
sV228
p4904
(dp4905
sV227
p4906
(dp4907
sV230
p4908
g2383
sV408
p4909
g3480
ssg528
(dp4910
g700
(dp4911
sV56
p4912
(dp4913
sg2053
g1347
ssg530
(dp4914
g3200
g2586
sg1162
(dp4915
sg836
(dp4916
sg1069
(dp4917
sg4647
g4352
sV135
p4918
g3273
sg929
g2861
ssg532
(dp4919
g3200
g2785
sg929
g2863
sg948
g1751
sg988
g1834
sg986
g2956
sg1172
g3736
sg2561
g3246
sg934
(dp4920
ssg534
(dp4921
g1009
g2958
sV147
p4922
g2588
ssg536
(dp4923
g1015
g2590
sg929
g2866
sg1109
g1291
sg934
(dp4924
sg925
g3738
sg1259
g4354
sg923
(dp4925
ssg538
(dp4926
g3200
g2591
sg1087
(dp4927
sV145
p4928
g2827
sV205
p4929
g4791
sV210
p4930
(dp4931
sg948
g1757
sg934
(dp4932
sg988
g1836
sg1109
g1283
sV344
p4933
g924
sg260
g3211
sg925
g3740
sg927
g4356
sV275
p4934
g1353
sg986
g2960
sV127
p4935
g4925
sV408
p4936
g3486
sg1330
(dp4937
sV231
p4938
g2424
sg2561
g3248
ssg540
(dp4939
g934
(dp4940
sg1087
(dp4941
sg1249
g4357
sg1455
g3488
ssg542
(dp4942
V153
p4943
(dp4944
sV155
p4945
(dp4946
sV309
p4947
(dp4948
sV337
p4949
g2098
sg1009
g2978
sg1246
g3607
sg2517
(dp4950
sV396
p4951
g3859
sV394
p4952
g3877
sV175
p4953
g4154
sV174
p4954
g4157
sg1104
g4238
sV172
p4955
g4254
sV40
p4956
(dp4957
sV118
p4958
(dp4959
sV289
p4960
(dp4961
sV288
p4962
(dp4963
sV186
p4964
g4365
sV402
p4965
g3412
sV401
p4966
g3416
sV280
p4967
(dp4968
sV365
p4969
(dp4970
sV285
p4971
(dp4972
sV287
p4973
(dp4974
sV286
p4975
(dp4976
sV147
p4977
g2599
sV388
p4978
(dp4979
sg1005
g1594
sV79
p4980
g4868
sV78
p4981
g4878
sg2391
(dp4982
sV435
p4983
g2029
sV370
p4984
g3529
sV434
p4985
g2025
sV426
p4986
(dp4987
sV292
p4988
g1101
sV374
p4989
g3549
sV290
p4990
g1120
sV291
p4991
g1128
ssg544
(dp4992
g1246
g3608
sV153
p4993
(dp4994
ssg546
(dp4995
g986
g2980
sg934
(dp4996
sg2399
g1138
sg988
g1847
sg1112
g4368
ssg548
(dp4997
g2046
g2601
sg2268
(dp4998
sg988
g1849
sg986
g2982
sg1256
g3610
sV186
p4999
g4369
sg3504
(dp5000
sg934
(dp5001
ssg550
(dp5002
g934
(dp5003
sg2106
g2603
sg2092
g2301
sg380
g4048
ssg552
(dp5004
g934
(dp5005
sg1990
g4701
sg2315
g2491
ssg554
(dp5006
g4734
g2648
sg94
g1416
sg2822
g2896
sg934
(dp5007
sg1413
g4425
sg380
g4050
sg1417
g2243
ssg556
(dp5008
g942
g2650
sg934
(dp5009
sg634
(dp5010
sg1009
g2987
sg2520
g4241
sg1005
g1600
ssg558
(dp5011
g934
(dp5012
sg3469
(dp5013
sg936
g2995
ssg560
(dp5014
g1009
g2996
sg934
(dp5015
ssg562
(dp5016
g934
(dp5017
sg925
g3745
sg4096
g4377
ssg564
(dp5018
g2257
g2614
sg988
g1857
sg986
g3000
sg925
g3747
sg4000
g4379
sg934
(dp5019
ssg566
(dp5020
g934
(dp5021
sV186
p5022
g4400
ssg568
(dp5023
g934
(dp5024
sg1441
g4382
sg3536
(dp5025
ssg570
(dp5026
g1164
(dp5027
sV198
p5028
g1181
sg3437
g1196
sg948
g1753
sg988
g1859
sg934
(dp5029
sg1246
g3614
sg1172
g3806
sg1218
g4496
sg986
g3103
ssg572
(dp5030
g934
(dp5031
sg946
g4129
sg2527
g4384
sg936
g3105
ssg574
(dp5032
g934
(dp5033
sV389
p5034
(dp5035
sg1024
(dp5036
sV186
p5037
g4386
sg1005
g1519
ssg576
(dp5038
V153
p5039
(dp5040
sg2422
g4818
sg948
g1745
sg936
g3005
sg1494
g1374
sg1256
g3678
sg1172
g3751
sg3504
(dp5041
sV228
p5042
(dp5043
sV227
p5044
(dp5045
sV282
p5046
(dp5047
ssg578
(dp5048
g934
(dp5049
sg1996
g4506
ssg580
(dp5050
g934
(dp5051
sg5022
g4389
ssg582
(dp5052
g934
(dp5053
sg936
g3014
sV186
p5054
g4409
sg380
g4024
sg192
g2158
sg314
g3458
ssg584
(dp5055
g986
g2952
sg2811
g4220
sg988
g1831
sg1005
g1608
ssg586
(dp5056
g934
(dp5057
sg2106
g2633
sV238
p5058
g2303
sg380
g4028
ssg588
(dp5059
g2668
g1663
sg942
g2635
sV390
p5060
(dp5061
ssg590
(dp5062
g2668
g1664
sV390
p5063
(dp5064
ssg592
(dp5065
g986
g3017
sg948
g1719
sg774
(dp5066
sg988
g1867
ssg594
(dp5067
g1223
(dp5068
sg1162
(dp5069
sg1158
g2639
sg522
g4891
sg1100
g4970
sg1009
g2964
sg260
g3213
sg925
g3765
sg1218
g4413
sg934
(dp5070
sg4390
(dp5071
sg1104
g4236
ssg596
(dp5072
g4650
(dp5073
sg1256
g3636
sg602
(dp5074
ssg598
(dp5075
g934
(dp5076
sg2315
g2458
sg4613
g4415
sg2311
(dp5077
sg1109
g1299
ssg600
(dp5078
g936
g2984
sg626
(dp5079
sg192
g2163
ssg602
(dp5080
g148
g1992
sg1256
g3640
sV186
p5081
g4547
sV371
p5082
g3522
sV166
p5083
(dp5084
sg596
g5074
sV427
p5085
(dp5086
ssg604
(dp5087
g2133
g2655
sg938
g4444
ssg606
(dp5088
g934
(dp5089
sg1077
(dp5090
sg936
g3053
sV186
p5091
g4449
sg2311
(dp5092
sg1037
g4268
sg2315
g2473
ssg608
(dp5093
g2190
g4673
sg1109
g1285
sg934
(dp5094
sg1256
g3649
sV89
p5095
g3779
sV186
p5096
g4451
sg1077
(dp5097
sg3469
(dp5098
sg2315
g2475
sg1005
g1574
sg2311
(dp5099
ssg610
(dp5100
g942
g2671
sg1058
(dp5101
sg836
(dp5102
sg936
g3041
sg18
g967
sg934
(dp5103
sg2527
g4447
sg4853
g3482
ssg612
(dp5104
g1058
(dp5105
sg934
(dp5106
sg2066
g973
sg936
g3043
sV186
p5107
g4458
ssg614
(dp5108
V153
p5109
(dp5110
sV234
p5111
g2312
sg1246
g3651
sV82
p5112
g3896
sV83
p5113
g3912
sV80
p5114
(dp5115
sV81
p5116
g3921
sV230
p5117
g2384
sV84
p5118
g3954
sV85
p5119
g3968
sV186
p5120
g4440
sV187
p5121
g4614
sV185
p5122
g4638
sV423
p5123
(dp5124
sV282
p5125
(dp5126
sV425
p5127
(dp5128
sV363
p5129
g5077
sV426
p5130
(dp5131
sV204
p5132
g4802
sV400
p5133
g3421
sV305
p5134
(dp5135
sV120
p5136
g4893
sV381
p5137
g5092
sV382
p5138
g5099
sV229
p5139
(dp5140
sV226
p5141
(dp5142
sV222
p5143
(dp5144
sV233
p5145
g2476
sV376
p5146
g3561
ssg616
(dp5147
g934
(dp5148
sg936
g3047
sg618
(dp5149
sg5107
g4499
sg2067
g3452
ssg618
(dp5150
V10
p5151
g4661
sg90
g1393
sg616
g5149
sg828
(dp5152
sg392
g4098
sg934
(dp5153
sg925
g3783
sg1062
g4521
sg936
g3049
sg32
g1065
sV408
p5154
g3438
sV431
p5155
g2065
ssg620
(dp5156
g1100
g4979
sg997
g3579
sg1026
(dp5157
sg1005
g1531
sg1104
g4178
ssg622
(dp5158
g1166
g1696
sg4385
g5035
sg934
(dp5159
sg1246
g3653
sg2013
g4550
sg1077
(dp5160
sg1087
(dp5161
sg1037
g4279
ssg624
(dp5162
g986
g3070
sg760
(dp5163
sg988
g1901
sg1069
(dp5164
sg260
g3205
sg1218
g4465
ssg626
(dp5165
V153
p5166
(dp5167
sg884
(dp5168
sg888
(dp5169
sg890
(dp5170
sg1246
g3663
sg644
(dp5171
sV233
p5172
g2434
sg934
(dp5173
sg806
(dp5174
sV186
p5175
g4467
sg722
(dp5176
sg368
g3975
sg192
g2147
sg416
g4285
sg600
g5079
sg822
(dp5177
sV204
p5178
g4800
sg370
g3987
sg110
g1460
sV241
p5179
g4014
sg658
(dp5180
sV243
p5181
g4052
sV228
p5182
(dp5183
sV227
p5184
(dp5185
sg666
(dp5186
sg860
(dp5187
sg864
(dp5188
sg692
(dp5189
sV408
p5190
g3439
sg330
g3550
ssg628
(dp5191
g986
g3072
sg1085
g2682
sg988
g1902
ssg630
(dp5192
g986
g3074
sg934
(dp5193
sg1091
g4471
sg988
g1903
sV147
p5194
g2746
ssg632
(dp5195
V146
p5196
g2518
sV147
p5197
g2684
sV155
p5198
(dp5199
sV414
p5200
g4950
sg934
(dp5201
sV186
p5202
g4472
sg1077
(dp5203
sV228
p5204
(dp5205
sV227
p5206
(dp5207
sV426
p5208
(dp5209
ssg634
(dp5210
V153
p5211
(dp5212
sV215
p5213
(dp5214
sV199
p5215
g1144
sV157
p5216
(dp5217
sV211
p5218
(dp5219
sV28
p5220
g3387
sV191
p5221
g1236
sV218
p5222
(dp5223
sV102
p5224
g1478
sV117
p5225
(dp5226
sV89
p5227
g3794
sV64
p5228
g5203
sV239
p5229
g2309
sV103
p5230
g1485
sV68
p5231
(dp5232
sV155
p5233
(dp5234
sV86
p5235
g3930
sV231
p5236
g2409
sV435
p5237
g2037
sV24
p5238
g3310
sV25
p5239
g3318
sV26
p5240
g3330
sV27
p5241
g3341
sV48
p5242
(dp5243
sV49
p5244
(dp5245
sV46
p5246
(dp5247
sV47
p5248
(dp5249
sV44
p5250
(dp5251
sV42
p5252
(dp5253
sV29
p5254
g3391
sV41
p5255
(dp5256
sg234
g2500
sV406
p5257
g3400
sV186
p5258
g4473
sg368
g3985
sg192
g2150
sV421
p5259
(dp5260
sV188
p5261
g4648
sV422
p5262
(dp5263
sV285
p5264
(dp5265
sV409
p5266
g3427
sV408
p5267
g3442
sV87
p5268
g3945
sV205
p5269
g4769
sV207
p5270
g4807
sV208
p5271
g4819
sV99
p5272
g2193
sV121
p5273
g4897
sV382
p5274
g5097
sV109
p5275
g1470
sV243
p5276
g4061
sV228
p5277
(dp5278
sV227
p5279
(dp5280
sV389
p5281
g5160
sV100
p5282
g1492
sV106
p5283
g1506
sV107
p5284
g1522
sV104
p5285
g1614
sV105
p5286
g1618
sV77
p5287
g4840
sV39
p5288
g1625
sV282
p5289
(dp5290
sV381
p5291
g5090
sV30
p5292
g1798
sV50
p5293
(dp5294
sV293
p5295
g1114
sg678
(dp5296
sV116
p5297
(dp5298
sg556
g5010
sV436
p5299
g2015
sV297
p5300
g1078
sV108
p5301
g1461
sV295
p5302
g1093
sV374
p5303
g3552
sV246
p5304
g4011
ssg636
(dp5305
g934
(dp5306
sg936
g3076
sV186
p5307
g4474
sg2543
(dp5308
sV408
p5309
g3435
ssg638
(dp5310
g934
(dp5311
sg936
g3078
sV186
p5312
g4475
ssg640
(dp5313
g934
(dp5314
sV186
p5315
g4477
ssg642
(dp5316
g934
(dp5317
sg1441
g4397
sg3536
(dp5318
ssg644
(dp5319
g4466
g5171
sg2422
g4821
sg836
(dp5320
sg942
g2628
ssg646
(dp5321
g934
(dp5322
sV186
p5323
g4404
ssg648
(dp5324
g934
(dp5325
sV186
p5326
g4481
ssg650
(dp5327
g2283
g4301
sg2293
(dp5328
sg380
g4021
sg3997
(dp5329
ssg652
(dp5330
g934
(dp5331
sV186
p5332
g4411
ssg654
(dp5333
g934
(dp5334
sg5332
g4579
ssg656
(dp5335
g1246
g3681
sg668
(dp5336
sg1087
(dp5337
sg192
g2174
ssg658
(dp5338
g626
g5180
sg2159
g4607
sg2139
(dp5339
sg192
g2176
ssg660
(dp5340
g3567
g2712
sg2535
g2805
sg2139
(dp5341
sg1087
(dp5342
sg988
g1919
sg1009
g2927
sg5312
g4321
ssg662
(dp5343
g1166
g1759
sg524
g4896
sV89
p5344
g3816
sV228
p5345
(dp5346
sV227
p5347
(dp5348
sg758
(dp5349
sV86
p5350
g3932
ssg664
(dp5351
g326
g3540
sg1990
g4704
sg934
(dp5352
sg1256
g3690
sg436
g4651
sV362
p5353
g5073
sV427
p5354
(dp5355
sV361
p5356
g5084
ssg666
(dp5357
V153
p5358
(dp5359
sV140
p5360
g2876
sg836
(dp5361
sg988
g1922
sg1009
g2933
sg626
g5186
sg5107
g4442
sV229
p5362
(dp5363
sg192
g2184
sV230
p5364
g2389
sV170
p5365
g4286
ssg668
(dp5366
V153
p5367
(dp5368
sg1087
(dp5369
sg934
(dp5370
sV186
p5371
g4517
sV229
p5372
(dp5373
sg656
g5336
sV230
p5374
g2390
ssg670
(dp5375
g934
(dp5376
sg1085
g2715
sg925
g3818
sg1082
g4519
sg2139
(dp5377
ssg672
(dp5378
g986
g3088
sV147
p5379
g2717
sg988
g1923
sg934
(dp5380
sg3405
g4489
sg2543
(dp5381
ssg674
(dp5382
V147
p5383
g2718
sV145
p5384
g2828
sV205
p5385
g4795
sV154
p5386
(dp5387
sV208
p5388
g4836
sV238
p5389
g2304
sg380
g4042
sV243
p5390
g4060
sg192
g2186
sg2307
g4340
sV426
p5391
(dp5392
sV231
p5393
g2425
sV408
p5394
g3492
ssg676
(dp5395
g4079
g4298
sV176
p5396
g4135
sg4110
g4086
sg450
g4708
sg1049
g3462
ssg678
(dp5397
g1286
g4600
sg1077
g5296
ssg680
(dp5398
g4884
(dp5399
sg4886
g4690
sg2917
(dp5400
ssg682
(dp5401
g4734
g2786
sg2917
(dp5402
sV244
p5403
g3999
sV238
p5404
g2294
sg2297
g4046
sV249
p5405
g4081
sV257
p5406
g5328
ssg684
(dp5407
g3365
g3347
sg3381
g3361
sg4888
g3369
sg454
g4716
sg3344
g4726
sV182
p5408
g4294
sV17
p5409
g4709
sg2917
(dp5410
sV176
p5411
g4149
sV352
p5412
(dp5413
ssg686
(dp5414
V15
p5415
g4692
sg2917
(dp5416
sg4888
g3371
sg290
g3379
sg680
g5399
sV352
p5417
(dp5418
sg520
g4885
ssg688
(dp5419
g4734
g2788
sg3365
g3349
sg3381
g3363
sg4888
g3373
sg290
g3380
sg3356
g4719
sg3344
g4728
sg684
g5413
sg4884
g5418
sg4886
g4694
sg3997
(dp5420
ssg690
(dp5421
g2668
g1661
sg942
g2790
sV390
p5422
(dp5423
sV426
p5424
(dp5425
ssg692
(dp5426
g626
g5189
sg3547
g2792
ssg694
(dp5427
g934
(dp5428
sg1437
g4605
sg772
(dp5429
ssg696
(dp5430
g942
g2793
ssg698
(dp5431
g942
g2552
sg929
g2840
sg4930
(dp5432
sg934
(dp5433
sg986
g2921
sg1321
g3882
sg1330
(dp5434
ssg700
(dp5435
V146
p5436
g2510
sV147
p5437
g2553
sV153
p5438
(dp5439
sV198
p5440
g1165
sV450
p5441
g4092
sg1166
g1675
sV196
p5442
g1224
sg164
g2051
sg936
g2923
sV195
p5443
g1203
sg1246
g3586
sg2394
g3722
sg78
g1345
sV408
p5444
g3430
sg934
(dp5445
sV186
p5446
g4314
sg528
g4911
sV365
p5447
g5068
sV311
p5448
g5027
sV426
p5449
(dp5450
ssg702
(dp5451
g1166
g1684
sg362
g3942
ssg704
(dp5452
V427
p5453
(dp5454
sV147
p5455
g2554
sV145
p5456
g2801
sV155
p5457
(dp5458
sV198
p5459
g1160
sV228
p5460
(dp5461
sV317
p5462
g5036
sV306
p5463
(dp5464
sg1069
(dp5465
sV89
p5466
g3723
sV186
p5467
g4315
sg1077
g5214
sV298
p5468
g1025
sg934
(dp5469
sV227
p5470
(dp5471
sV205
p5472
g4763
sg1005
g1510
sg1037
g4261
sV408
p5473
g3432
ssg706
(dp5474
g2190
g4678
sg3385
g4764
sg1166
g1679
sV153
p5475
(dp5476
sV193
p5477
g1263
sV270
p5478
g1305
sg1256
g3588
sV395
p5479
g3873
sV427
p5480
(dp5481
ssg708
(dp5482
g934
(dp5483
sg948
g1703
sg2485
(dp5484
ssg710
(dp5485
V216
p5486
g5432
sg1333
g2556
sV202
p5487
g4758
sg929
g2841
sg934
(dp5488
sV128
p5489
g4931
sV88
p5490
g3589
sV186
p5491
g4316
sg1337
g3885
sV231
p5492
g2401
sV220
p5493
(dp5494
ssg712
(dp5495
g986
g2925
sg1087
(dp5496
sg988
g1814
sg934
(dp5497
sg2382
g4900
sg925
g3725
sV186
p5498
g4318
sg1077
g5219
sg1646
(dp5499
ssg714
(dp5500
g1087
(dp5501
sg274
g3298
sg1077
g5223
sg492
g4806
ssg716
(dp5502
g934
(dp5503
sV186
p5504
g4320
ssg718
(dp5505
V216
p5506
g5433
sV217
p5507
g5445
sV215
p5508
g5469
sg708
g5483
sV210
p5509
g5488
sV211
p5510
g5497
sg716
g5503
sV132
p5511
g3199
sV130
p5512
g3222
sV137
p5513
g3229
sV136
p5514
g3241
sV135
p5515
g3257
sV24
p5516
g3302
sV25
p5517
g3315
sV26
p5518
g3327
sV27
p5519
g3338
sV160
p5520
g5370
sV28
p5521
g3383
sV29
p5522
g3389
sV161
p5523
g5376
sV288
p5524
(dp5525
sg14
g935
sV347
p5526
g945
sg20
g981
sV342
p5527
g990
sg310
g3420
sg728
(dp5528
sV285
p5529
(dp5530
sg734
(dp5531
sV287
p5532
(dp5533
sV286
p5534
(dp5535
sV227
p5536
(dp5537
sV262
p5538
(dp5539
sV261
p5540
(dp5541
sg746
(dp5542
sV125
p5543
g4920
sV127
p5544
g4924
sV128
p5545
g4932
sV129
p5546
g4940
sV269
p5547
(dp5548
sV183
p5549
g4304
sV57
p5550
(dp5551
sV51
p5552
(dp5553
sg782
(dp5554
sV52
p5555
(dp5556
sg1100
g4961
sV416
p5557
g4996
sV417
p5558
g5001
sg550
g5003
sg552
g5005
sV298
p5559
g1046
sV299
p5560
g1061
sV296
p5561
g1068
sV297
p5562
g1072
sV373
p5563
g3533
sV295
p5564
g1089
sg328
g3544
sV419
p5565
g5015
sV290
p5566
g1124
sV376
p5567
g3560
sV146
p5568
g2524
sg562
g5017
sV318
p5569
g5019
sV198
p5570
g1171
sg54
g1199
sg56
g1210
sV197
p5571
g1216
sV310
p5572
g5031
sg62
g1233
sV190
p5573
g1245
sg578
g5049
sg580
g5051
sV115
p5574
(dp5575
sV392
p5576
g3571
sV117
p5577
(dp5578
sV89
p5579
g3729
sV111
p5580
(dp5581
sV396
p5582
g3863
sg796
(dp5583
sV69
p5584
g5317
sV82
p5585
g3891
sg88
g1383
sV80
p5586
(dp5587
sV81
p5588
g3918
sV118
p5589
(dp5590
sV84
p5591
g3949
sV85
p5592
g3964
sV174
p5593
g4160
sV207
p5594
g4809
sg1104
g4201
sV429
p5595
(dp5596
sV300
p5597
(dp5598
sg582
g5053
sg586
g5057
sV420
p5599
(dp5600
sV365
p5601
g5070
sg598
g5076
sV427
p5602
(dp5603
sV426
p5604
(dp5605
sg824
(dp5606
sV449
p5607
g1390
sV448
p5608
g1399
sV412
p5609
g5007
sV443
p5610
g1412
sg96
g1420
sV302
p5611
(dp5612
sV440
p5613
g1431
sV447
p5614
g1436
sg838
(dp5615
sV306
p5616
(dp5617
sV446
p5618
g1440
sV371
p5619
g3525
sV382
p5620
g5094
sV383
p5621
g5103
sV384
p5622
g5106
sV243
p5623
g4058
sV387
p5624
g5153
sV389
p5625
g5159
sV100
p5626
g1487
sg842
(dp5627
sg38
g1080
sg606
g5089
sg558
g5012
sV31
p5628
g1710
sg374
g4004
sg44
g1111
sV145
p5629
g2814
sV246
p5630
g4009
sV438
p5631
g1995
sg152
g2002
sV436
p5632
g2010
sV435
p5633
g2032
sV431
p5634
g2061
sg170
g2070
sg172
g2074
sg390
g4091
sV451
p5635
g4095
sV452
p5636
g4100
sV336
p5637
g2104
sg182
g2109
sV330
p5638
g2115
sV61
p5639
g5173
sV259
p5640
g5193
sV64
p5641
g5201
sV66
p5642
g5306
sV67
p5643
g5311
sg640
g5314
sV176
p5644
g4133
sg646
g5322
sg648
g5325
sg652
g5331
sg654
g5334
sg484
g4755
sV272
p5645
g1319
sg190
g2132
sg798
(dp5646
sV182
p5647
g4293
sg566
g5021
sg424
g4311
sg1480
g4328
sV187
p5648
g4611
sV184
p5649
g4622
sV312
p5650
g5024
sV188
p5651
g4646
sV311
p5652
g5029
sV386
p5653
g5148
sV179
p5654
g4108
sV221
p5655
(dp5656
sV97
p5657
g2267
sV317
p5658
g5033
sV185
p5659
g4636
sV98
p5660
g2202
sV229
p5661
(dp5662
sV228
p5663
(dp5664
sV91
p5665
g2215
sg852
(dp5666
sV166
p5667
g5352
sV92
p5668
g2250
sV95
p5669
g2252
sV94
p5670
g2263
sV162
p5671
g5380
sV220
p5672
(dp5673
sV393
p5674
g3566
sV13
p5675
g4667
sV88
p5676
g3670
sV273
p5677
g1335
sV409
p5678
g3424
sV32
p5679
g1670
sV408
p5680
g3455
sV153
p5681
(dp5682
sV116
p5683
(dp5684
sV157
p5685
(dp5686
sV159
p5687
(dp5688
sV112
p5689
(dp5690
sV292
p5691
g1106
sV238
p5692
g2289
sg216
g2306
sV83
p5693
g3910
sV34
p5694
g1988
sV230
p5695
g2354
sV231
p5696
g2412
sV233
p5697
g2443
sV48
p5698
(dp5699
sV46
p5700
(dp5701
sV47
p5702
(dp5703
sV45
p5704
(dp5705
sV42
p5706
(dp5707
sV43
p5708
(dp5709
sV40
p5710
(dp5711
sV41
p5712
(dp5713
sg234
g2498
sV323
p5714
g4735
sg918
(dp5715
sV324
p5716
g4744
sV155
p5717
(dp5718
sV335
p5719
g2083
sV201
p5720
g4750
sV147
p5721
g2569
sV144
p5722
g2795
sV202
p5723
g4759
sV205
p5724
g4775
sg490
g4799
sV140
p5725
g2874
sV141
p5726
g2883
sV208
p5727
g4825
sV148
p5728
g2890
sV149
p5729
g2911
sV76
p5730
g4843
sV75
p5731
g4846
sV72
p5732
g4859
sV71
p5733
g4861
sV70
p5734
g4865
sV334
p5735
g2088
sV79
p5736
g4867
sV291
p5737
g1130
sV404
p5738
g3407
sV413
p5739
g5009
sV359
p5740
g5428
ssg720
(dp5741
g1100
g4963
sg1610
g4329
sg1104
g4203
sg4159
g1544
sg934
g5525
ssg722
(dp5742
g5379
g2573
sg988
g1821
sg986
g2940
sg626
g5176
sg2307
g4332
sV243
p5743
g4057
sg192
g2161
ssg724
(dp5744
g236
g2531
sV147
p5745
g2576
sg26
g1008
sg28
g1022
sV426
p5746
(dp5747
ssg726
(dp5748
g1100
g4968
sg1104
g4210
sg280
g3336
sg3316
g4336
sg1005
g1553
ssg728
(dp5749
g934
g5528
sg936
g2944
sV186
p5750
g4338
ssg730
(dp5751
V205
p5752
g4778
sg1166
g1720
sV316
p5753
g5047
sg1246
g3592
sg2311
g5126
sg4894
g2454
sg1077
g5290
ssg732
(dp5754
g2257
g2578
sV154
p5755
(dp5756
sg764
(dp5757
sg2333
(dp5758
sg1087
(dp5759
sg988
g1825
sg1100
g4972
sg2254
g4341
sg1077
g5265
sg986
g3127
sg934
g5530
sg1104
g4213
ssg734
(dp5760
g934
g5531
sg936
g3129
sV186
p5761
g4343
ssg736
(dp5762
g1100
g4974
sg1473
g4344
sg1104
g4215
sg934
g5533
ssg738
(dp5763
g1100
g4976
sg934
g5535
sg1246
g3698
sg1104
g4245
sg1073
(dp5764
ssg740
(dp5765
g948
g1746
sg925
g3734
sV205
p5766
g4786
ssg742
(dp5767
g934
g5539
sg4101
g4347
ssg744
(dp5768
V147
p5769
g2584
sg934
g5541
sg298
g3398
sV186
p5770
g4348
sg936
g3195
sV228
p5771
(dp5772
sV227
p5773
(dp5774
ssg746
(dp5775
g934
g5542
sg5504
g4350
ssg748
(dp5776
g1423
g4602
sg1005
g1575
ssg750
(dp5777
g936
g3197
sg2046
g2587
sg2216
(dp5778
sg3473
g4835
ssg752
(dp5779
g1246
g3595
sV153
p5780
(dp5781
ssg754
(dp5782
g2520
g4226
sg1005
g1576
sg4164
g4256
ssg756
(dp5783
g934
g5548
sg2374
g4793
sg1166
g1760
sg1259
g4359
sg936
g2962
ssg758
(dp5784
g662
g5349
sg1166
g1705
sg3761
g3934
ssg760
(dp5785
V147
p5786
g2592
sV153
p5787
(dp5788
sV145
p5789
g2829
sg52
g1161
sg988
g1838
sg624
g5163
sg1246
g3599
sg986
g2966
sV408
p5790
g3496
ssg762
(dp5791
V147
p5792
g2593
sg2725
(dp5793
sV145
p5794
g2830
sV198
p5795
g1163
sg988
g1840
sg986
g2968
sg1246
g3601
sg530
g4915
sg1218
g4361
sg594
g5069
sV408
p5796
g3497
ssg764
(dp5797
g2417
g2595
sV152
p5798
(dp5799
sV154
p5800
(dp5801
sV53
p5802
(dp5803
sV285
p5804
g5757
sV94
p5805
g2259
sV426
p5806
(dp5807
ssg766
(dp5808
V147
p5809
g2596
sV145
p5810
g2832
sg882
(dp5811
sg874
(dp5812
sg988
g1842
sg986
g2970
sV426
p5813
(dp5814
ssg768
(dp5815
V153
p5816
(dp5817
sg934
g5551
sg1246
g3603
sV186
p5818
g4362
sV135
p5819
g3282
sg192
g2187
sV222
p5820
(dp5821
sV220
p5822
(dp5823
ssg770
(dp5824
g3437
g1198
sg1246
g3605
sV123
p5825
g4913
sV274
p5826
g1348
sg854
(dp5827
sV433
p5828
g2052
ssg772
(dp5829
g934
g5553
sV186
p5830
g4363
sV359
p5831
g5429
ssg774
(dp5832
V147
p5833
g2597
sV145
p5834
g2806
sV205
p5835
g4796
sg929
g2846
sg948
g1690
sg988
g1844
sg986
g2972
sg260
g3208
sg4647
g4469
sg2561
g3243
sg592
g5066
sV408
p5836
g3440
ssg776
(dp5837
g986
g2974
sV147
p5838
g2598
sg988
g1846
sg764
g5803
ssg778
(dp5839
g934
g5556
sV312
p5840
g5025
sg324
g3537
sV186
p5841
g4364
sV69
p5842
g5318
ssg780
(dp5843
g3200
g2683
sV145
p5844
g2834
sV205
p5845
g4797
sg948
g1779
sg988
g1946
sg986
g3152
sV408
p5846
g3441
ssg782
(dp5847
g934
g5554
sg1077
g5294
sg3396
g3284
sg5028
g1170
ssg784
(dp5848
V146
p5849
g2549
sg934
g5575
sV174
p5850
g4162
sV198
p5851
g1178
sV195
p5852
g1206
sV302
p5853
(dp5854
sV196
p5855
g1225
sV60
p5856
g5164
sV215
p5857
g5465
sV186
p5858
g4391
sV365
p5859
g5071
sV296
p5860
g1070
sV124
p5861
g4917
sV435
p5862
g2040
sV173
p5863
g4232
sV231
p5864
g2426
sg5145
g2433
ssg786
(dp5865
g2374
g4771
sg1087
(dp5866
sg988
g1905
sg986
g3080
sg4999
g4588
sg1077
g5232
sg192
g2153
ssg788
(dp5867
V205
p5868
g4767
sg934
g5578
sV89
p5869
g3796
sV186
p5870
g4393
sg1077
g5226
sV228
p5871
(dp5872
sV227
p5873
(dp5874
sg802
(dp5875
sV171
p5876
g4264
ssg790
(dp5877
g934
g5684
sg1166
g1691
sg5095
g3755
sV186
p5878
g4533
sg1077
g5298
ssg792
(dp5879
V153
p5880
(dp5881
sg934
g5581
sg1246
g3622
sg925
g3829
sV186
p5882
g4394
sg1446
g2341
sV231
p5883
g2408
ssg794
(dp5884
g2216
(dp5885
sg988
g1862
sV316
p5886
g5041
sg986
g3009
sg2381
g2206
sV417
p5887
g5000
sV408
p5888
g3505
ssg796
(dp5889
g934
g5583
sV186
p5890
g4396
ssg798
(dp5891
g934
g5646
sV186
p5892
g4486
ssg800
(dp5893
g942
g2626
sV153
p5894
(dp5895
sg3473
g4823
sg1256
g3627
sg86
g1377
sV101
p5896
g1499
sV85
p5897
g3971
sV426
p5898
(dp5899
ssg802
(dp5900
g1100
g4959
sg934
g5590
sg788
g5875
sV186
p5901
g4401
sg408
g4156
sg410
g4184
ssg804
(dp5902
g934
g5596
sg4734
g2631
sg380
g4039
sg2822
g2915
ssg806
(dp5903
g936
g3013
sg626
g5174
sg192
g2157
ssg808
(dp5904
g3473
g4827
sg1246
g3632
sg1077
g5260
sg3838
g2451
ssg810
(dp5905
g934
g5600
sg942
g2637
sg1049
g3485
ssg812
(dp5906
g2311
g5124
sg2315
g2452
ssg814
(dp5907
V42
p5908
(dp5909
sg988
g1869
sg146
g1984
sg916
(dp5910
sg986
g3019
sg1246
g3634
sg1077
g5263
sg2705
g4641
sg1005
g1555
ssg816
(dp5911
g986
g3021
sV147
p5912
g2641
sg2315
g2456
sg2311
g5128
sg988
g1870
ssg818
(dp5913
g986
g2976
sg988
g1871
sg2742
g2489
ssg820
(dp5914
V153
p5915
(dp5916
sg1024
g5454
sg1262
g5481
sg2216
(dp5917
sg712
g5499
sg1109
g1276
sg986
g3024
sg1246
g3638
sg5095
g3767
sg1001
g3875
sg1494
g1379
sV230
p5918
g2365
sV231
p5919
g2414
sg1037
g4282
sg282
g3342
sg3710
(dp5920
sg934
g5603
sV186
p5921
g4416
sg368
g3984
sg2705
g4635
sg602
g5086
sg480
g4751
sV202
p5922
g4760
sg1252
g4780
sg2422
g4829
sV229
p5923
(dp5924
sV228
p5925
(dp5926
sV227
p5927
(dp5928
sg4650
g5355
sg862
(dp5929
sg2190
g4682
sV38
p5930
g1647
sg948
g1781
sg988
g1873
ssg822
(dp5931
g1164
g5450
sg3254
(dp5932
sV154
p5933
(dp5934
sg1009
g3026
sg626
g5177
sg260
g3215
sg1172
g3769
sg2517
g5209
sg4918
g3286
sg1321
g3908
sg2520
g4222
sg800
g5899
sg2485
(dp5935
sg934
g5605
sg2527
g4418
sg940
g4627
sg724
g5747
sg2066
g975
sg1049
g3466
sg2417
g2643
sg2422
g4831
sg836
(dp5936
sg2291
g3994
sg1020
g4857
sg2311
g5131
sg1494
g1381
sg1005
g1605
sg2185
g5392
sg440
g4663
sg764
g5807
sg766
g5814
sg948
g1788
sg1100
g4987
sg2668
g1668
sg5060
(dp5937
sg690
g5425
sg380
g4030
ssg824
(dp5938
g934
g5606
sg3534
g4420
ssg826
(dp5939
g1100
g4948
sg278
g3312
sg1104
g4173
sg1005
g1563
ssg828
(dp5940
g440
g4657
sg610
g5101
sV299
p5941
g1059
sg988
g1875
sg934
g5598
sg925
g3772
sg612
g5105
sg1009
g3029
sg618
g5152
sg1337
g3889
sg5107
g4408
sV408
p5942
g3472
sg1330
(dp5943
ssg830
(dp5944
g94
g1408
sg2006
g2236
sg1410
g2899
ssg832
(dp5945
g1156
g2539
sg1069
g5854
sg934
g5612
sg1218
g4429
sg1009
g3022
sg946
g4145
sg1049
g3476
ssg834
(dp5946
g94
g1407
sg986
g3032
sV186
p5947
g4423
sg988
g1878
sg942
g2646
ssg836
(dp5948
V146
p5949
g2540
sV147
p5950
g2651
sV205
p5951
g4784
sV383
p5952
g5102
sV406
p5953
g3399
sV208
p5954
g4833
sg948
g1743
sV131
p5955
g3203
sg296
g3394
sg420
g4303
sg1256
g3643
sg1172
g3775
sV124
p5956
g4916
sg266
g3240
sg5819
g3271
sV299
p5957
g1060
sV186
p5958
g4431
sV250
p5959
g5320
sV167
p5960
g5361
sV426
p5961
g5936
ssg838
(dp5962
g934
g5615
sg2311
g5135
sV233
p5963
g2468
ssg840
(dp5964
V147
p5965
g2652
sV145
p5966
g2821
sV453
p5967
g4106
sg988
g1879
sg146
g1982
sg986
g3045
sg1246
g3645
sg1024
g5464
sV186
p5968
g4432
sg428
g4610
sg934
g5617
sg218
g2314
sV408
p5969
g3478
sV233
p5970
g2469
ssg842
(dp5971
g934
g5627
sg4005
g2665
sV186
p5972
g4434
ssg844
(dp5973
g1087
(dp5974
sg4109
g2358
ssg846
(dp5975
g2399
g1146
sV159
p5976
(dp5977
sg2333
(dp5978
sg184
g2122
sg936
g3109
sg1246
g3683
sg2394
g3811
sg264
g3233
sV66
p5979
g5308
sg2335
g4117
sg402
g4123
sg2350
g3295
sg358
g3923
sg2026
g4224
sg1328
g3956
sg366
g3970
sg934
g5662
sg1033
g2386
sg906
(dp5980
sg908
(dp5981
sg234
g2502
sV405
p5982
g3403
sg2877
g4508
sg210
g2276
sg2364
g5924
sg1455
g3484
sV146
p5983
g2544
sg1015
g2708
sV145
p5984
g2825
sg2374
g4788
sg929
g2865
sg492
g4808
sg2378
g2887
sg2381
g2208
sg2382
g4903
sg2311
g5140
sg1463
(dp5985
sg2388
g5363
sg668
g5373
sV162
p5986
g5381
sg2391
(dp5987
sg130
g1627
sg132
g1639
sg1166
g1749
ssg848
(dp5988
g1024
g5461
sg2399
g1148
sg3927
(dp5989
sg2333
(dp5990
sg1028
g1239
sg5753
g5043
sg936
g3111
sg626
g5183
sg3795
g5872
sg2394
g3813
sg2517
g5205
sg634
g5278
sg3396
g3275
sg662
g5346
sg1037
g4275
sg3838
g2478
sg276
g3307
sg278
g3321
sg280
g3333
sg898
(dp5991
sg902
(dp5992
sg904
(dp5993
sg906
(dp5994
sg5908
(dp5995
sg912
(dp5996
sg916
(dp5997
sg934
g5664
sg1473
g4510
sg368
g3979
sg192
g2180
sg2364
g5926
sg1156
g2546
sg4005
g2710
sg2374
g4790
sg492
g4805
sg2382
g4905
sg744
g5772
sg384
g4069
sg1794
(dp5998
sg200
g2228
sg1005
g1571
sg516
g4871
sg130
g1629
sg132
g1641
sg1166
g1683
sg504
g4849
sg234
g2504
sg1246
g3685
ssg850
(dp5999
g1024
g5471
sg2399
g1150
sV229
p6000
g5985
sg3927
(dp6001
sg2333
(dp6002
sV228
p6003
g5998
sg1028
g1241
sg5753
g5045
sg936
g3113
sg626
g5185
sg3795
g5874
sg2394
g3815
sg632
g5207
sg634
g5280
sg3396
g3277
sg200
g2230
sV108
p6004
g1464
sV230
p6005
g2387
sg1037
g4277
sg3838
g2480
sg276
g3309
sg278
g3323
sg280
g3335
sg898
(dp6006
sg902
(dp6007
sg904
(dp6008
sg906
(dp6009
sg5908
(dp6010
sg912
(dp6011
sg916
(dp6012
sg934
g5537
sg1473
g4512
sV187
p6013
g4612
sg368
g3980
sg192
g2182
sg2364
g5928
sV286
p6014
g5764
sg1156
g2548
sV147
p6015
g2582
sV145
p6016
g2818
sg2374
g4782
sg492
g4810
sV382
p6017
g5098
sg502
g4842
sg2382
g4907
sg112
g1466
sg744
g5774
sg384
g4064
sg198
g2214
sg662
g5348
sg124
g1577
sg516
g4873
sg130
g1631
sg132
g1643
sg1166
g1687
sg140
g1795
sg504
g4851
sg234
g2506
sg1246
g3687
sV297
p6018
g1074
sV408
p6019
g3470
sV418
p6020
g5013
sV293
p6021
g1116
sg48
g1127
ssg852
(dp6022
g934
g5666
sg2315
g2482
sV186
p6023
g4514
sg2311
g5142
sg1109
g1295
ssg854
(dp6024
g770
g5827
ssg856
(dp6025
g1166
g1761
sg1361
g4516
sg2190
g4680
sg1256
g3692
ssg858
(dp6026
g1166
g1762
sg3838
g2484
ssg860
(dp6027
g942
g2568
sV205
p6028
g4794
sV213
p6029
g5484
sg768
g5821
sg626
g5187
sV186
p6030
g4327
sg2311
g5144
sV426
p6031
g5935
sV233
p6032
g2486
ssg862
(dp6033
g934
g5656
sg1109
g1301
sg936
g3107
sg925
g3820
sg1286
g4502
sg1646
g5929
ssg864
(dp6034
V216
p6035
g5434
sV153
p6036
(dp6037
sV155
p6038
(dp6039
sg2400
g5494
sg1109
g1270
sg936
g3119
sg626
g5188
sV272
p6040
g1331
sg925
g3822
sV134
p6041
g3290
sg2520
g4234
sg412
g4258
sV230
p6042
g2392
sg934
g5673
sg927
g4527
sg368
g3982
sV201
p6043
g4752
sV202
p6044
g4761
sg929
g2870
sV300
p6045
g5943
sV229
p6046
g5987
sV128
p6047
g4937
sg1005
g1585
sg2190
g4684
sg768
g5823
sg1246
g3597
sg542
g4982
sV298
p6048
g1055
sV439
p6049
g2008
sV295
p6050
g1098
ssg866
(dp6051
g1166
g1688
sg2033
g3825
sg1246
g3661
ssg868
(dp6052
V153
p6053
(dp6054
sV155
p6055
(dp6056
sV31
p6057
g1773
sg2190
g4676
sg1246
g3618
sg1307
g3827
sV395
p6058
g3869
sV343
p6059
g1000
sV78
p6060
g4879
ssg870
(dp6061
g942
g2721
sg142
g1809
sg988
g1861
sg986
g3007
sg1246
g3697
sg304
g3410
sg690
g5423
sg588
g5061
sV367
p6062
g5064
sV426
p6063
g5937
ssg872
(dp6064
g2417
g2722
sg3534
g4536
ssg874
(dp6065
g766
g5812
sg2254
g4538
sg5933
(dp6066
sg2257
g2724
ssg876
(dp6067
g700
g5439
sg995
(dp6068
sV135
p6069
g3255
sg3437
g1186
sg5753
g5040
sg986
g3132
sg4466
g5167
sg999
g6054
sg262
g3221
sg2407
g5881
sg1077
g5212
sg1001
g3866
sg1262
g5476
sg1495
g2329
sg362
g3937
sg3838
g2432
sg800
g5895
sg3710
(dp6070
sg5908
(dp6071
sg934
g5682
sV406
p6072
g3401
sg1249
g4540
sg2705
g4631
sg2364
g5916
sV408
p6073
g3431
sV147
p6074
g2726
sV145
p6075
g2800
sV244
p6076
g3996
sg2311
g5110
sV265
p6077
g5781
sg514
g4864
sg200
g2220
sg2388
g5359
sg668
g5368
sg1005
g1509
sg2391
g6037
sg760
g5788
sg762
g5793
sg1104
g4169
sg997
g3583
sg2668
g1652
sg1166
g1677
sg142
g1803
sg988
g1926
sg1100
g4944
sV415
p6078
g4994
sg342
g3830
sg1256
g3700
sV426
p6079
g5932
sg768
g5817
sg2297
g4017
ssg878
(dp6080
g986
g3134
sg4734
g2728
sg2254
g4541
sg988
g1928
sg764
g5799
ssg880
(dp6081
V153
p6082
g6068
sg1024
g5458
sV276
p6083
g1358
sg1028
g1230
sg988
g1930
sg1009
g3136
sg997
g3581
sg1246
g3702
sV89
p6084
g3831
sg2517
g5199
sg1077
g5234
sg1001
g3868
sV277
p6085
g1369
sg946
g4126
sg1003
g4171
sg4164
g4252
sg1037
g4263
sg276
g3301
sg278
g3314
sg280
g3326
sg898
(dp6086
sg902
(dp6087
sg1033
g2331
sg5908
(dp6088
sg912
(dp6089
sg916
(dp6090
sg934
g5718
sg1047
g4542
sV184
p6091
g4625
sV343
p6092
g996
sg2391
g6039
sg1049
g3434
sg3528
g2730
sV388
p6093
g5157
sV107
p6094
g1512
sV78
p6095
g4875
sV270
p6096
g1309
sV271
p6097
g1315
sg999
g6056
sV35
p6098
g1980
sV414
p6099
g4946
sV298
p6100
g1027
sg904
(dp6101
sV437
p6102
g2018
sV435
p6103
g2030
ssg882
(dp6104
V150
p6105
g6066
sg986
g3138
sg1172
g3833
sV257
p6106
g5329
sV20
p6107
g3351
sV21
p6108
g3353
sV22
p6109
g3366
sV23
p6110
g3377
sg3534
g4590
sg520
g4887
sV285
p6111
g5756
sV426
p6112
g5934
sg4734
g2732
sV149
p6113
g2918
sV244
p6114
g3998
sV240
p6115
g4018
sg2185
g5387
sV15
p6116
g4688
sg764
g5801
sV19
p6117
g4717
sg766
g5811
sg948
g1786
sg988
g1932
sV356
p6118
g5400
sV355
p6119
g5402
sV354
p6120
g5410
sV353
p6121
g5416
sV352
p6122
g5420
sV18
p6123
g4721
ssg884
(dp6124
V158
p6125
(dp6126
sg936
g3140
sg626
g5168
sg1077
g5217
sV86
p6127
g3928
sV231
p6128
g2410
sV170
p6129
g4288
sg934
g5686
sV186
p6130
g4544
sV227
p6131
g6001
sg192
g2140
sV427
p6132
g5917
sV408
p6133
g3436
sV146
p6134
g2512
sV147
p6135
g2733
sV144
p6136
g2798
sV145
p6137
g2802
sV169
p6138
g5339
sV228
p6139
g5989
sV164
p6140
g5341
sg670
g5377
sV97
p6141
g2269
sV91
p6142
g2217
sV110
p6143
g5885
sV417
p6144
g4998
sV266
p6145
g5778
ssg886
(dp6146
g1337
g3887
sg358
g3916
ssg888
(dp6147
g3547
g2735
sg2543
g5977
sg988
g1934
sg934
g5688
sg626
g5169
sg925
g3835
sg2159
g4546
sg1009
g3142
sg192
g2142
ssg890
(dp6148
g2139
g6126
sV230
p6149
g2334
sg192
g2144
sg988
g1936
sg1009
g3144
sg626
g5170
sV229
p6150
g5978
sV228
p6151
g5990
sV227
p6152
g6002
sV174
p6153
g4158
sV285
p6154
g5758
sV173
p6155
g4174
ssg892
(dp6156
g934
g5690
sg1246
g3704
sg342
g3760
sg1396
g2344
ssg894
(dp6157
g1087
(dp6158
sg934
g5587
sV272
p6159
g1324
sV273
p6160
g1339
sg2311
g5115
sg1337
g3901
sg1326
g2347
ssg896
(dp6161
V34
p6162
g1989
ssg898
(dp6163
V155
p6164
g6086
sV298
p6165
g1042
sg934
g5699
sg1077
g5243
sg308
g3418
sV228
p6166
g5991
sV227
p6167
g6006
sV173
p6168
g4189
ssg900
(dp6169
g1051
g2744
sg1246
g3709
sg1005
g1533
sg1077
g5245
sg912
(dp6170
ssg902
(dp6171
V155
p6172
g6087
sg178
g2097
sg934
g5701
sg1077
g5247
sV298
p6173
g1043
sV228
p6174
g5992
sV227
p6175
g6007
sV173
p6176
g4191
ssg904
(dp6177
V155
p6178
g6101
sV228
p6179
g5993
sg934
g5703
sg1077
g5249
sV298
p6180
g1044
sg350
g3878
sV227
p6181
g6008
sV173
p6182
g4193
ssg906
(dp6183
V153
p6184
g6070
sV199
p6185
g1136
sV211
p6186
g5496
sV218
p6187
g5501
sV227
p6188
g6009
sV164
p6189
g5342
sg340
g3711
sV89
p6190
g3839
sg1077
g5251
sV178
p6191
g4114
sV82
p6192
g3890
sV83
p6193
g3911
sV80
p6194
g6158
sV81
p6195
g3917
sV230
p6196
g2355
sV231
p6197
g2411
sV84
p6198
g3948
sV85
p6199
g3962
sV27
p6200
g3339
sV140
p6201
g2879
sV45
p6202
(dp6203
sV28
p6204
g3384
sV172
p6205
g4253
sg234
g2497
sV183
p6206
g4307
sV180
p6207
g4309
sV181
p6208
g5974
sV186
p6209
g4554
sV206
p6210
g4813
sV188
p6211
g4645
sV233
p6212
g2442
sV285
p6213
g5759
sV68
p6214
g5866
sV408
p6215
g3453
sV449
p6216
g1389
sV205
p6217
g4774
sV143
p6218
g2851
sV207
p6219
g4811
sV141
p6220
g2882
sV139
p6221
g3292
sV142
p6222
g2837
sV445
p6223
g1445
sV98
p6224
g2201
sV122
p6225
g4901
sV109
p6226
g1471
sV168
p6227
g5337
sV229
p6228
g5980
sV228
p6229
g5994
sV128
p6230
g4927
sV389
p6231
g5161
sV160
p6232
g5369
sV129
p6233
g4941
sV96
p6234
g2281
sV39
p6235
g1620
sV295
p6236
g1088
sg138
g1707
sV36
p6237
g1947
sV177
p6238
g4120
sV293
p6239
g1108
sV130
p6240
g3219
sg820
g5920
sV436
p6241
g2016
sV435
p6242
g2031
sV432
p6243
g2048
sV374
p6244
g3548
ssg908
(dp6245
V147
p6246
g2747
sV145
p6247
g2813
sV37
p6248
g1806
sg1087
g6203
sg1028
g1232
sg934
g5705
sV229
p6249
g5981
sV230
p6250
g2356
sg1005
g1536
ssg910
(dp6251
V153
p6252
g6071
sV155
p6253
g6088
sg934
g5707
sg3860
g4555
sg1077
g5253
sV228
p6254
g5995
sV227
p6255
g6010
sg814
g5909
sg1005
g1538
ssg912
(dp6256
V155
p6257
g6089
sg900
g6170
sg934
g5709
sV186
p6258
g4556
sV228
p6259
g5996
sV227
p6260
g6011
sV173
p6261
g4195
sg1005
g1540
ssg914
(dp6262
g1100
g4957
sg5878
g4557
sg4406
g4197
sg934
g5711
ssg916
(dp6263
V155
p6264
g6090
sg934
g5713
sg1077
g5256
sV298
p6265
g1045
sV228
p6266
g5997
sV227
p6267
g6012
sV422
p6268
g5910
sg518
g4877
ssg918
(dp6269
g934
g5715
sV186
p6270
g4558
sssg1
(dp6271
sS'node_dict_factory'
p6272
c__builtin__
dict
p6273
sS'adjlist_dict_factory'
p6274
g6273
sS'adj'
p6275
g921
sS'edge_attr_dict_factory'
p6276
g6273
sbsS'cnumber'
p6277
(dp6278
g10
I4
sg12
I1
sg14
I5
sg16
I5
sg18
I8
sg20
I3
sg22
I6
sg24
I6
sg26
I4
sg28
I4
sg30
I12
sg32
I7
sg34
I3
sg36
I5
sg38
I3
sg40
I11
sg42
I4
sg44
I7
sg46
I4
sg48
I4
sg50
I12
sg52
I12
sg54
I10
sg56
I2
sg58
I6
sg60
I5
sg62
I8
sg64
I4
sg66
I8
sg68
I10
sg70
I6
sg72
I4
sg74
I8
sg76
I8
sg78
I3
sg80
I4
sg82
I6
sg84
I5
sg86
I5
sg88
I2
sg90
I8
sg92
I3
sg94
I7
sg96
I4
sg98
I4
sg100
I5
sg102
I2
sg104
I2
sg106
I5
sg108
I5
sg110
I6
sg112
I5
sg114
I4
sg116
I4
sg118
I4
sg120
I5
sg122
I4
sg124
I13
sg126
I4
sg128
I4
sg130
I9
sg132
I6
sg134
I8
sg136
I3
sg138
I13
sg140
I4
sg142
I7
sg144
I13
sg146
I6
sg148
I3
sg150
I4
sg152
I7
sg154
I6
sg156
I6
sg158
I3
sg160
I12
sg162
I5
sg164
I3
sg166
I3
sg168
I8
sg170
I3
sg172
I3
sg174
I6
sg176
I8
sg178
I5
sg180
I5
sg182
I3
sg184
I4
sg186
I3
sg188
I4
sg190
I4
sg192
I12
sg194
I5
sg196
I8
sg198
I3
sg200
I7
sg202
I7
sg204
I2
sg206
I3
sg208
I5
sg210
I6
sg212
I5
sg214
I10
sg216
I3
sg218
I3
sg220
I3
sg222
I3
sg224
I3
sg226
I13
sg228
I13
sg230
I1
sg232
I12
sg234
I8
sg236
I13
sg238
I13
sg240
I5
sg242
I13
sg244
I2
sg246
I13
sg248
I5
sg250
I6
sg252
I2
sg254
I8
sg256
I13
sg258
I5
sg260
I7
sg262
I6
sg264
I6
sg266
I11
sg268
I13
sg270
I3
sg272
I4
sg274
I1
sg276
I7
sg278
I7
sg280
I7
sg282
I5
sg284
I5
sg286
I5
sg288
I5
sg290
I4
sg292
I5
sg294
I4
sg296
I5
sg298
I5
sg300
I3
sg302
I5
sg304
I2
sg306
I5
sg308
I4
sg310
I3
sg312
I9
sg314
I13
sg316
I3
sg318
I3
sg320
I7
sg322
I7
sg324
I4
sg326
I3
sg328
I2
sg330
I7
sg332
I1
sg334
I11
sg336
I2
sg338
I10
sg340
I13
sg342
I13
sg344
I3
sg346
I4
sg348
I8
sg350
I4
sg352
I9
sg354
I5
sg356
I5
sg358
I9
sg360
I5
sg362
I6
sg364
I9
sg366
I9
sg368
I10
sg370
I10
sg372
I7
sg374
I3
sg376
I8
sg378
I3
sg380
I10
sg382
I10
sg384
I4
sg386
I6
sg388
I6
sg390
I3
sg392
I8
sg394
I4
sg396
I1
sg398
I3
sg400
I4
sg402
I3
sg404
I12
sg406
I4
sg408
I8
sg410
I13
sg412
I6
sg414
I11
sg416
I5
sg418
I6
sg420
I11
sg422
I2
sg424
I3
sg426
I13
sg428
I10
sg430
I11
sg432
I10
sg434
I9
sg436
I2
sg438
I4
sg440
I8
sg442
I10
sg444
I5
sg446
I4
sg448
I10
sg450
I4
sg452
I5
sg454
I5
sg456
I5
sg458
I1
sg460
I3
sg462
I5
sg464
I3
sg466
I3
sg468
I3
sg470
I3
sg472
I6
sg474
I3
sg476
I3
sg478
I3
sg480
I5
sg482
I4
sg484
I4
sg486
I10
sg488
I13
sg490
I6
sg492
I11
sg494
I5
sg496
I2
sg498
I13
sg500
I4
sg502
I3
sg504
I6
sg506
I5
sg508
I4
sg510
I2
sg512
I2
sg514
I7
sg516
I6
sg518
I8
sg520
I4
sg522
I4
sg524
I3
sg526
I9
sg528
I3
sg530
I7
sg532
I8
sg534
I2
sg536
I7
sg538
I13
sg540
I4
sg542
I12
sg544
I2
sg546
I5
sg548
I7
sg550
I4
sg552
I3
sg554
I7
sg556
I6
sg558
I3
sg560
I2
sg562
I3
sg564
I6
sg566
I2
sg568
I3
sg570
I10
sg572
I4
sg574
I5
sg576
I8
sg578
I2
sg580
I2
sg582
I6
sg584
I4
sg586
I4
sg588
I3
sg590
I2
sg592
I4
sg594
I10
sg596
I3
sg598
I5
sg600
I3
sg602
I5
sg604
I2
sg606
I7
sg608
I10
sg610
I8
sg612
I5
sg614
I10
sg616
I5
sg618
I8
sg620
I5
sg622
I7
sg624
I6
sg626
I12
sg628
I3
sg630
I5
sg632
I10
sg634
I13
sg636
I5
sg638
I3
sg640
I2
sg642
I3
sg644
I4
sg646
I2
sg648
I2
sg650
I4
sg652
I2
sg654
I2
sg656
I4
sg658
I4
sg660
I7
sg662
I5
sg664
I5
sg666
I9
sg668
I6
sg670
I5
sg672
I6
sg674
I10
sg676
I4
sg678
I2
sg680
I3
sg682
I6
sg684
I5
sg686
I4
sg688
I5
sg690
I4
sg692
I2
sg694
I3
sg696
I1
sg698
I7
sg700
I12
sg702
I2
sg704
I13
sg706
I8
sg708
I3
sg710
I9
sg712
I9
sg714
I3
sg716
I2
sg718
I13
sg720
I5
sg722
I7
sg724
I4
sg726
I5
sg728
I3
sg730
I7
sg732
I10
sg734
I3
sg736
I4
sg738
I5
sg740
I3
sg742
I2
sg744
I6
sg746
I2
sg748
I2
sg750
I4
sg752
I2
sg754
I3
sg756
I5
sg758
I3
sg760
I8
sg762
I10
sg764
I5
sg766
I6
sg768
I8
sg770
I3
sg772
I3
sg774
I10
sg776
I4
sg778
I3
sg780
I7
sg782
I4
sg784
I10
sg786
I7
sg788
I8
sg790
I5
sg792
I7
sg794
I7
sg796
I2
sg798
I2
sg800
I6
sg802
I6
sg804
I4
sg806
I3
sg808
I4
sg810
I3
sg812
I2
sg814
I8
sg816
I5
sg818
I3
sg820
I13
sg822
I12
sg824
I2
sg826
I4
sg828
I8
sg830
I3
sg832
I7
sg834
I5
sg836
I11
sg838
I3
sg840
I10
sg842
I3
sg844
I2
sg846
I13
sg848
I13
sg850
I13
sg852
I5
sg854
I1
sg856
I4
sg858
I2
sg860
I8
sg862
I6
sg864
I13
sg866
I3
sg868
I8
sg870
I6
sg872
I2
sg874
I4
sg876
I13
sg878
I5
sg880
I13
sg882
I10
sg884
I12
sg886
I2
sg888
I9
sg890
I10
sg892
I4
sg894
I7
sg896
I1
sg898
I7
sg900
I5
sg902
I7
sg904
I7
sg906
I13
sg908
I8
sg910
I8
sg912
I7
sg914
I4
sg916
I8
sg918
I2
ss.