(dp0
S'tnumber'
p1
(dp2
(V238
p3
V243
p4
tp5
I6
s(V90
p6
V88
p7
tp8
I6
s(V31
p9
V245
p10
tp11
I6
s(V186
p12
V221
p13
tp14
I5
s(V27
p15
V427
p16
tp17
I4
s(V145
p18
V240
p19
tp20
I6
s(V55
p21
V426
p22
tp23
I4
s(V33
p24
V133
p25
tp26
I7
s(V183
p27
V289
p28
tp29
I8
s(V182
p30
V16
p31
tp32
I6
s(V96
p33
V173
p34
tp35
I4
s(V107
p36
V75
p37
tp38
I5
s(V133
p39
V220
p40
tp41
I8
s(V208
p42
g28
tp43
I9
s(V153
p44
V44
p45
tp46
I9
s(V61
p47
V169
p48
tp49
I5
s(V89
p50
V13
p51
tp52
I7
s(V79
p53
V414
p54
tp55
I5
s(V452
p56
g28
tp57
I5
s(V59
p58
V153
p59
tp60
I7
s(V246
p61
V186
p62
tp63
I7
s(V191
p64
V65
p65
tp66
I6
s(V359
p67
V51
p68
tp69
I4
s(V147
p70
V227
p71
tp72
I11
s(V135
p73
V228
p74
tp75
I9
s(V230
p76
V45
p77
tp78
I6
s(V270
p79
V212
p80
tp81
I3
s(V176
p82
V354
p83
tp84
I3
s(V395
p85
V155
p86
tp87
I6
s(g39
V186
p88
tp89
I9
s(g18
g28
tp90
I11
s(V177
p91
V229
p92
tp93
I4
s(g12
V201
p94
tp95
I5
s(V351
p96
V426
p97
tp98
I4
s(V439
p99
V88
p100
tp101
I6
s(V23
p102
V18
p103
tp104
I5
s(V132
p105
V131
p106
tp107
I3
s(V36
p108
V408
p109
tp110
I9
s(V67
p111
g28
tp112
I3
s(V451
p113
V186
p114
tp115
I5
s(V408
p116
V208
p117
tp118
I9
s(V195
p119
V147
p120
tp121
I8
s(V35
p122
V155
p123
tp124
I4
s(V278
p125
V101
p126
tp127
I4
s(g12
V384
p128
tp129
I4
s(g12
V306
p130
tp131
I7
s(g9
V128
p132
tp133
I9
s(g119
V450
p134
tp135
I4
s(V272
p136
V220
p137
tp138
I5
s(g50
V217
p139
tp140
I9
s(V101
p141
V230
p142
tp143
I4
s(g70
g39
tp144
I9
s(g50
V300
p145
tp146
I6
s(V289
p147
V45
p148
tp149
I6
s(g76
V155
p150
tp151
I9
s(V199
p152
V88
p153
tp154
I8
s(V414
p155
V118
p156
tp157
I6
s(V192
p158
V248
p159
tp160
I3
s(g12
V226
p161
tp162
I4
s(V88
p163
V286
p164
tp165
I5
s(g12
V314
p166
tp167
I3
s(V298
p168
V24
p169
tp170
I5
s(g18
g130
tp171
I7
s(V21
p172
V154
p173
tp174
I6
s(V105
p175
V173
p176
tp177
I4
s(V389
p178
g28
tp179
I5
s(g122
V408
p180
tp181
I5
s(V228
p182
V44
p183
tp184
I9
s(V234
p185
g130
tp186
I3
s(V137
p187
V186
p188
tp189
I6
s(V345
p190
V147
p191
tp192
I4
s(V295
p193
V44
p194
tp195
I6
s(g12
V285
p196
tp197
I6
s(V229
p198
V159
p199
tp200
I6
s(V340
p201
V74
p202
tp203
I5
s(g108
V259
p204
tp205
I5
s(g39
V258
p206
tp207
I4
s(V82
p208
V186
p209
tp210
I7
s(V217
p211
V153
p212
tp213
I9
s(V338
p214
g28
tp215
I4
s(V375
p216
g28
tp217
I3
s(V205
p218
V117
p219
tp220
I7
s(g70
g105
tp221
I4
s(V93
p222
V301
p223
tp224
I4
s(g163
V49
p225
tp226
I3
s(g39
V266
p227
tp228
I4
s(g39
V306
p229
tp230
I7
s(V149
p231
g173
tp232
I6
s(V173
p233
V280
p234
tp235
I5
s(g82
V182
p236
tp237
I6
s(g24
V366
p238
tp239
I3
s(g116
V3
p240
tp241
I5
s(g158
V186
p242
tp243
I6
s(V449
p244
g194
tp245
I5
s(g70
V261
p246
tp247
I6
s(V81
p248
V156
p249
tp250
I3
s(g218
V68
p251
tp252
I5
s(g9
V224
p253
tp254
I4
s(g9
V204
p255
tp256
I5
s(g99
g28
tp257
I6
s(g39
V284
p258
tp259
I3
s(g163
V155
p260
tp261
I9
s(g155
V285
p262
tp263
I6
s(V140
p264
V186
p265
tp266
I4
s(V143
p267
V186
p268
tp269
I9
s(V85
p270
V385
p271
tp272
I7
s(V343
p273
V155
p274
tp275
I4
s(V129
p276
g28
tp277
I4
s(V299
p278
V133
p279
tp280
I5
s(g39
V311
p281
tp282
I5
s(g12
V152
p283
tp284
I5
s(g233
V289
p285
tp286
I9
s(g208
V81
p287
tp288
I7
s(g76
V160
p289
tp290
I6
s(V87
p291
V153
p292
tp293
I5
s(g76
V186
p294
tp295
I11
s(g9
V263
p296
tp297
I4
s(V98
p298
g28
tp299
I8
s(V86
p300
V165
p301
tp302
I4
s(V275
p303
V128
p304
tp305
I4
s(g193
V107
p306
tp307
I7
s(g108
V184
p308
tp309
I7
s(g82
V310
p310
tp311
I4
s(V400
p312
g28
tp313
I3
s(g47
V222
p314
tp315
I5
s(V296
p316
V115
p317
tp318
I3
s(g108
V364
p319
tp320
I4
s(g12
V254
p321
tp322
I3
s(g36
V42
p323
tp324
I7
s(V91
p325
g71
tp326
I4
s(g39
V399
p327
tp328
I5
s(V189
p329
V166
p330
tp331
I3
s(g9
V114
p332
tp333
I3
s(g70
V185
p334
tp335
I8
s(V38
p336
V228
p337
tp338
I5
s(g108
g231
tp339
I8
s(g12
V217
p340
tp341
I9
s(V22
p342
V353
p343
tp344
I4
s(g76
V167
p345
tp346
I6
s(g76
V181
p347
tp348
I3
s(g276
g194
tp349
I4
s(V297
p350
g28
tp351
I4
s(g12
V78
p352
tp353
I6
s(g278
g28
tp354
I5
s(g289
V229
p355
tp356
I6
s(g70
V14
p357
tp358
I7
s(g116
V10
p359
tp360
I6
s(V197
p361
V147
p362
tp363
I6
s(V65
p364
V157
p365
tp366
I7
s(g12
V11
p367
tp368
I4
s(V427
p369
V227
p370
tp371
I9
s(g108
V68
p372
tp373
I5
s(g9
V311
p374
tp375
I7
s(V249
p376
V12
p377
tp378
I6
s(V342
p379
V89
p380
tp381
I4
s(V445
p382
V147
p383
tp384
I4
s(g163
V362
p385
tp386
I4
s(g364
V227
p387
tp388
I8
s(V146
p389
V64
p390
tp391
I7
s(g108
V323
p392
tp393
I5
s(g50
V319
p394
tp395
I4
s(g12
V427
p396
tp397
I9
s(g122
V306
p398
tp399
I5
s(g39
V370
p400
tp401
I5
s(g36
V155
p402
tp403
I8
s(g267
V134
p404
tp405
I3
s(V127
p406
V128
p407
tp408
I6
s(V271
p409
V155
p410
tp411
I4
s(g76
V84
p412
tp413
I7
s(V245
p414
g47
tp415
I5
s(V104
p416
V186
p417
tp418
I4
s(V25
p419
V155
p420
tp421
I5
s(V6
p422
V68
p423
tp424
I5
s(g108
V147
p425
tp426
I9
s(g70
g18
tp427
I11
s(V193
p428
V171
p429
tp430
I5
s(g116
V129
p431
tp432
I4
s(g163
V189
p433
tp434
I3
s(g76
V145
p435
tp436
I11
s(V443
p437
V186
p438
tp439
I6
s(g108
V404
p440
tp441
I5
s(V233
p442
g412
tp443
I7
s(V435
p444
V173
p445
tp446
I8
s(g187
g28
tp447
I6
s(V75
p448
V228
p449
tp450
I5
s(g12
V188
p451
tp452
I6
s(V218
p453
g194
tp454
I4
s(g267
g25
tp455
I9
s(g116
V58
p456
tp457
I8
s(g233
V186
p458
tp459
I9
s(V30
p460
V227
p461
tp462
I4
s(g39
V321
p463
tp464
I4
s(V109
p465
V186
p466
tp467
I5
s(g70
V376
p468
tp469
I6
s(g422
V61
p470
tp471
I7
s(g201
V408
p472
tp473
I6
s(g36
V426
p474
tp475
I8
s(V388
p476
g410
tp477
I5
s(V276
p478
g410
tp479
I5
s(g18
V173
p480
tp481
I9
s(g9
V153
p482
tp483
I9
s(g108
V164
p484
tp485
I6
s(V227
p486
V48
p487
tp488
I5
s(g15
g194
tp489
I4
s(V412
p490
g28
tp491
I6
s(g364
V421
p492
tp493
I3
s(g267
V124
p494
tp495
I4
s(V39
p496
V392
p497
tp498
I4
s(V130
p499
V186
p500
tp501
I5
s(V231
p502
V111
p503
tp504
I6
s(V243
p505
g65
tp506
I4
s(g116
V18
p507
tp508
I4
s(g201
V186
p509
tp510
I6
s(g106
V426
p511
tp512
I5
s(V7
p513
g19
tp514
I3
s(V201
p515
g137
tp516
I5
s(g39
V229
p517
tp518
I9
s(g444
V89
p519
tp520
I7
s(g108
V422
p521
tp522
I4
s(V171
p523
V381
p524
tp525
I4
s(g389
g28
tp526
I11
s(g486
V43
p527
tp528
I6
s(V15
p529
V352
p530
tp531
I5
s(g428
V186
p532
tp533
I5
s(g79
g7
tp534
I4
s(V383
p535
g28
tp536
I6
s(g116
g130
tp537
I7
s(V252
p538
g28
tp539
I3
s(g422
V186
p540
tp541
I9
s(g108
V334
p542
tp543
I8
s(g50
V111
p544
tp545
I7
s(g50
V382
p546
tp547
I7
s(g222
V238
p548
tp549
I8
s(g70
V369
p550
tp551
I4
s(g39
V425
p552
tp553
I4
s(g303
V143
p554
tp555
I3
s(g468
g268
tp556
I6
s(g12
g147
tp557
I11
s(g364
V282
p558
tp559
I3
s(V106
p560
V173
p561
tp562
I4
s(g39
V451
p563
tp564
I5
s(g70
g130
tp565
I7
s(g3
V163
p566
tp567
I6
s(g3
V147
p568
tp569
I8
s(g422
V158
p570
tp571
I6
s(g147
V307
p572
tp573
I4
s(V384
p574
V300
p575
tp576
I4
s(g108
V208
p577
tp578
I9
s(V438
p579
V147
p580
tp581
I4
s(V64
p582
g28
tp583
I7
s(g183
V45
p584
tp585
I4
s(g76
V1
p586
tp587
I6
s(g163
V59
p588
tp589
I6
s(V128
p590
g194
tp591
I9
s(g12
V169
p592
tp593
I5
s(g47
V157
p594
tp595
I7
s(g9
g300
tp596
I4
s(g70
V152
p597
tp598
I5
s(g198
g71
tp599
I11
s(V386
p600
V387
p601
tp602
I5
s(g233
g317
tp603
I5
s(g70
V322
p604
tp605
I4
s(V179
p606
g28
tp607
I3
s(V330
p608
g28
tp609
I5
s(V273
p610
V82
p611
tp612
I6
s(V206
p613
g194
tp614
I4
s(g422
V157
p615
tp616
I9
s(g168
V408
p617
tp618
I8
s(g12
V40
p619
tp620
I5
s(V436
p621
V186
p622
tp623
I5
s(g409
g7
tp624
I4
s(g169
V402
p625
tp626
I3
s(g233
V79
p627
tp628
I5
s(V12
p629
V16
p630
tp631
I6
s(V167
p632
V304
p633
tp634
I3
s(V242
p635
V228
p636
tp637
I4
s(g270
V229
p638
tp639
I7
s(g147
V153
p640
tp641
I9
s(g9
V228
p642
tp643
I9
s(g108
V376
p644
tp645
I6
s(g70
V162
p646
tp647
I5
s(g12
V255
p648
tp649
I3
s(g9
V13
p650
tp651
I7
s(g18
V153
p652
tp653
I9
s(V144
p654
V157
p655
tp656
I4
s(V385
p657
V80
p658
tp659
I4
s(g428
g80
tp660
I5
s(g9
V227
p661
tp662
I11
s(g70
V155
p663
tp664
I9
s(g147
V283
p665
tp666
I3
s(g369
V229
p667
tp668
I9
s(g116
V157
p669
tp670
I9
s(V20
p671
V354
p672
tp673
I6
s(g39
V152
p674
tp675
I5
s(V122
p676
V211
p677
tp678
I6
s(g70
V204
p679
tp680
I5
s(g172
V19
p681
tp682
I6
s(g36
V145
p683
tp684
I8
s(V215
p685
g317
tp686
I5
s(g336
V230
p687
tp688
I6
s(g39
V2
p689
tp690
I3
s(g73
V186
p691
tp692
I9
s(g158
V382
p693
tp694
I4
s(g108
V371
p695
tp696
I4
s(V185
p697
V153
p698
tp699
I8
s(g9
V70
p700
tp701
I6
s(g650
V212
p702
tp703
I6
s(V28
p704
g65
tp705
I4
s(V198
p706
g58
tp707
I6
s(g267
V376
p708
tp709
I6
s(g12
V187
p710
tp711
I5
s(g19
V355
p712
tp713
I4
s(g64
V227
p714
tp715
I6
s(g36
V309
p716
tp717
I4
s(g36
V317
p718
tp719
I4
s(g102
g173
tp720
I5
s(g231
V301
p721
tp722
I4
s(g193
V220
p723
tp724
I7
s(g208
V426
p725
tp726
I6
s(g70
V426
p727
tp728
I9
s(g70
V285
p729
tp730
I6
s(g12
V72
p731
tp732
I3
s(g325
g655
tp733
I4
s(g523
V427
p734
tp735
I6
s(g50
g274
tp736
I9
s(g657
V426
p737
tp738
I5
s(V236
p739
g25
tp740
I4
s(g70
V303
p741
tp742
I5
s(g39
V405
p743
tp744
I3
s(V417
p745
V110
p746
tp747
I5
s(g42
V316
p748
tp749
I6
s(V124
p750
g633
tp751
I5
s(g513
g71
tp752
I6
s(g147
V426
p753
tp754
I9
s(g36
V78
p755
tp756
I6
s(g233
V158
p757
tp758
I5
s(g706
V50
p759
tp760
I3
s(g497
V153
p761
tp762
I7
s(g64
V228
p763
tp764
I6
s(g12
V357
p765
tp766
I3
s(g39
V245
p767
tp768
I6
s(g12
V383
p769
tp770
I6
s(g70
V429
p771
tp772
I4
s(g502
g194
tp773
I9
s(g73
V407
p774
tp775
I4
s(g505
g28
tp776
I5
s(g36
V184
p777
tp778
I7
s(g152
V229
p779
tp780
I8
s(g625
g54
tp781
I5
s(g201
V444
p782
tp783
I4
s(V347
p784
V186
p785
tp786
I5
s(V26
p787
V228
p788
tp789
I5
s(g70
g633
tp790
I8
s(g359
V387
p791
tp792
I6
s(g19
V182
p793
tp794
I4
s(V241
p795
V186
p796
tp797
I3
s(V333
p798
V147
p799
tp800
I4
s(g19
V426
p801
tp802
I6
s(V8
p803
V353
p804
tp805
I4
s(g116
g194
tp806
I9
s(V161
p807
g28
tp808
I5
s(g9
V408
p809
tp810
I11
s(V83
p811
g194
tp812
I4
s(g12
V412
p813
tp814
I6
s(g116
V183
p815
tp816
I8
s(g364
V44
p817
tp818
I8
s(g91
g194
tp819
I4
s(g82
V302
p820
tp821
I6
s(V244
p822
V153
p823
tp824
I5
s(g85
V153
p825
tp826
I6
s(g70
V245
p827
tp828
I6
s(g53
V228
p829
tp830
I5
s(g718
g28
tp831
I4
s(g64
V173
p832
tp833
I6
s(g39
V207
p834
tp835
I8
s(g12
V127
p836
tp837
I6
s(g208
V300
p838
tp839
I5
s(g83
g173
tp840
I6
s(g389
g317
tp841
I5
s(g27
V186
p842
tp843
I8
s(g632
V153
p844
tp845
I6
s(g108
V4
p846
tp847
I5
s(g782
V36
p848
tp849
I5
s(g193
g65
tp850
I6
s(g79
g306
tp851
I4
s(g50
V263
p852
tp853
I4
s(g113
g28
tp854
I5
s(V407
p855
V240
p856
tp857
I3
s(g182
V42
p858
tp859
I7
s(g70
V210
p860
tp861
I7
s(g76
V207
p862
tp863
I8
s(g24
g108
tp864
I7
s(g389
V176
p865
tp866
I8
s(g19
V249
p867
tp868
I4
s(g542
V186
p869
tp870
I8
s(g39
V228
p871
tp872
I9
s(g50
V128
p873
tp874
I9
s(g704
g28
tp875
I3
s(g39
V74
p876
tp877
I5
s(g147
V42
p878
tp879
I7
s(g12
V155
p880
tp881
I9
s(g12
g846
tp882
I5
s(g523
V186
p883
tp884
I6
s(g39
V300
p885
tp886
I6
s(g108
g222
tp887
I8
s(g70
V406
p888
tp889
I3
s(V220
p890
V153
p891
tp892
I8
s(g422
g70
tp893
I9
s(g168
g419
tp894
I5
s(g218
V62
p895
tp896
I8
s(g437
V303
p897
tp898
I4
s(g451
g65
tp899
I6
s(g198
g757
tp900
I5
s(g76
V111
p901
tp902
I7
s(g108
V258
p903
tp904
I4
s(g155
g390
tp905
I6
s(g39
V259
p906
tp907
I5
s(V247
p908
V186
p909
tp910
I4
s(g513
g65
tp911
I5
s(g158
V127
p912
tp913
I5
s(g422
V243
p914
tp915
I6
s(V94
p916
V147
p917
tp918
I5
s(g85
V391
p919
tp920
I5
s(V291
p921
V227
p922
tp923
I3
s(g116
g601
tp924
I6
s(g300
V268
p925
tp926
I4
s(g12
V154
p927
tp928
I6
s(V99
p929
g100
tp930
I3
s(V336
p931
g25
tp932
I5
s(g921
g445
tp933
I4
s(g264
g7
tp934
I4
s(g579
g25
tp935
I4
s(g9
V145
p936
tp937
I11
s(g73
V89
p938
tp939
I9
s(g18
V63
p940
tp941
I6
s(g185
V233
p942
tp943
I3
s(g39
V217
p944
tp945
I8
s(V73
p946
V426
p947
tp948
I4
s(g273
g306
tp949
I4
s(g163
V174
p950
tp951
I6
s(V339
p952
g28
tp953
I4
s(g39
V310
p954
tp955
I4
s(V426
p956
V154
p957
tp958
I6
s(g233
V288
p959
tp960
I5
s(V356
p961
g173
tp962
I4
s(g352
g54
tp963
I6
s(g422
V360
p964
tp965
I3
s(g152
V133
p966
tp967
I8
s(g36
V368
p968
tp969
I3
s(g73
V208
p970
tp971
I9
s(V136
p972
V408
p973
tp974
I8
s(g116
g865
tp975
I8
s(g422
V167
p976
tp977
I5
s(g244
g28
tp978
I6
s(V69
p979
g28
tp980
I4
s(g208
V156
p981
tp982
I3
s(g108
V53
p983
tp984
I4
s(g389
V246
p985
tp986
I7
s(g579
g28
tp987
I4
s(g36
V45
p988
tp989
I4
s(g39
V386
p990
tp991
I5
s(V84
p992
V186
p993
tp994
I7
s(g73
V376
p995
tp996
I6
s(V250
p997
g633
tp998
I4
s(g336
V229
p999
tp1000
I6
s(g590
g28
tp1001
I9
s(g168
g279
tp1002
I8
s(g342
V352
p1003
tp1004
I6
s(V174
p1005
g28
tp1006
I6
s(g70
g938
tp1007
I11
s(g163
V385
p1008
tp1009
I7
s(g108
V325
p1010
tp1011
I4
s(g422
V170
p1012
tp1013
I5
s(V277
p1014
V31
p1015
tp1016
I3
s(g231
V186
p1017
tp1018
I8
s(g39
V360
p1019
tp1020
I3
s(g193
g380
tp1021
I7
s(g147
V117
p1022
tp1023
I7
s(V381
p1024
g65
tp1025
I3
s(g608
V229
p1026
tp1027
I5
s(g389
V183
p1028
tp1029
I8
s(g499
V153
p1030
tp1031
I5
s(g9
V397
p1032
tp1033
I4
s(g108
V158
p1034
tp1035
I5
s(g27
g194
tp1036
I7
s(g855
g7
tp1037
I4
s(g76
g554
tp1038
I9
s(V54
p1039
V150
p1040
tp1041
I4
s(g316
g28
tp1042
I3
s(g168
g28
tp1043
I8
s(g108
V322
p1044
tp1045
I4
s(g53
V227
p1046
tp1047
I5
s(g39
V373
p1048
tp1049
I4
s(V437
p1050
g622
tp1051
I6
s(g163
V220
p1052
tp1053
I8
s(V362
p1054
g330
tp1055
I4
s(V257
p1056
V154
p1057
tp1058
I4
s(g196
V154
p1059
tp1060
I6
s(V204
p1061
g470
tp1062
I4
s(g108
V60
p1063
tp1064
I4
s(g1005
V173
p1065
tp1066
I6
s(g248
g28
tp1067
I7
s(g163
V265
p1068
tp1069
I3
s(g931
g869
tp1070
I5
s(g862
g486
tp1071
I8
s(g233
V365
p1072
tp1073
I6
s(g50
V86
p1074
tp1075
I4
s(g9
V135
p1076
tp1077
I9
s(g108
V146
p1078
tp1079
I9
s(g419
g65
tp1080
I5
s(g108
V153
p1081
tp1082
I9
s(g502
g396
tp1083
I9
s(g116
V89
p1084
tp1085
I11
s(g502
V452
p1086
tp1087
I5
s(g108
V405
p1088
tp1089
I3
s(g99
V93
p1090
tp1091
I4
s(g108
V162
p1092
tp1093
I5
s(g50
V311
p1094
tp1095
I7
s(g389
V217
p1096
tp1097
I9
s(g163
V229
p1098
tp1099
I10
s(V369
p1100
g28
tp1101
I4
s(g12
V283
p1102
tp1103
I3
s(g116
g58
tp1104
I7
s(V290
p1105
V186
p1106
tp1107
I5
s(g12
V361
p1108
tp1109
I4
s(g12
g862
tp1110
I8
s(g39
V326
p1111
tp1112
I4
s(g116
V12
p1113
tp1114
I6
s(V164
p1115
g194
tp1116
I4
s(V203
p1117
g28
tp1118
I5
s(g3
V410
p1119
tp1120
I4
s(g108
V399
p1121
tp1122
I5
s(g657
V222
p1123
tp1124
I5
s(V274
p1125
V433
p1126
tp1127
I3
s(g39
V11
p1128
tp1129
I4
s(g116
V82
p1130
tp1131
I6
s(g108
V431
p1132
tp1133
I5
s(g21
V154
p1134
tp1135
I4
s(V102
p1136
V186
p1137
tp1138
I4
s(g9
V143
p1139
tp1140
I9
s(g499
g28
tp1141
I5
s(g9
V212
p1142
tp1143
I6
s(g916
V186
p1144
tp1145
I5
s(g376
V176
p1146
tp1147
I6
s(g359
V300
p1148
tp1149
I6
s(V413
p1150
g364
tp1151
I3
s(V120
p1152
g271
tp1153
I4
s(V318
p1154
g28
tp1155
I5
s(V363
p1156
g28
tp1157
I4
s(g12
g979
tp1158
I4
s(g119
V217
p1159
tp1160
I8
s(V18
p1161
V352
p1162
tp1163
I6
s(g108
V332
p1164
tp1165
I5
s(g24
V426
p1166
tp1167
I6
s(g992
g194
tp1168
I7
s(g108
V390
p1169
tp1170
I5
s(V353
p1171
g173
tp1172
I5
s(V166
p1173
g28
tp1174
I4
s(g231
g25
tp1175
I8
s(g822
V355
p1176
tp1177
I4
s(g916
V408
p1178
tp1179
I5
s(g50
g218
tp1180
I9
s(g163
V119
p1181
tp1182
I5
s(V411
p1183
g28
tp1184
I3
s(g79
V89
p1185
tp1186
I4
s(g136
V80
p1187
tp1188
I5
s(g972
V62
p1189
tp1190
I8
s(g437
V93
p1191
tp1192
I6
s(g147
V51
p1193
tp1194
I4
s(g414
g19
tp1195
I6
s(V123
p1196
g211
tp1197
I3
s(g116
g357
tp1198
I7
s(V293
p1199
g194
tp1200
I5
s(g369
g45
tp1201
I9
s(g108
V335
p1202
tp1203
I5
s(g36
V280
p1204
tp1205
I5
s(g855
g633
tp1206
I4
s(g44
g274
tp1207
I9
s(g42
g633
tp1208
I8
s(g163
V57
p1209
tp1210
I6
s(g505
V186
p1211
tp1212
I6
s(g158
V427
p1213
tp1214
I4
s(g39
V424
p1215
tp1216
I3
s(V19
p1217
g103
tp1218
I6
s(g523
V389
p1219
tp1220
I5
s(g231
g28
tp1221
I6
s(g218
V427
p1222
tp1223
I9
s(g163
V112
p1224
tp1225
I5
s(g739
V147
p1226
tp1227
I4
s(g422
V159
p1228
tp1229
I5
s(g39
V167
p1230
tp1231
I6
s(g147
V308
p1232
tp1233
I3
s(g1132
g791
tp1234
I6
s(g704
g194
tp1235
I4
s(g303
g380
tp1236
I4
s(g42
V250
p1237
tp1238
I4
s(V261
p1239
V227
p1240
tp1241
I6
s(g163
V58
p1242
tp1243
I7
s(g264
g194
tp1244
I4
s(V37
p1245
V390
p1246
tp1247
I5
s(g116
V66
p1248
tp1249
I5
s(g70
g652
tp1250
I9
s(g147
V50
p1251
tp1252
I3
s(g610
g248
tp1253
I6
s(g12
V315
p1254
tp1255
I3
s(V117
p1256
V118
p1257
tp1258
I4
s(g442
V226
p1259
tp1260
I4
s(g671
V352
p1261
tp1262
I6
s(g9
V184
p1263
tp1264
I7
s(g389
g938
tp1265
I11
s(g50
V426
p1266
tp1267
I9
s(g233
g352
tp1268
I6
s(g70
V202
p1269
tp1270
I7
s(g248
V186
p1271
tp1272
I7
s(V239
p1273
g65
tp1274
I3
s(g244
V147
p1275
tp1276
I6
s(g1105
g445
tp1277
I5
s(g39
V110
p1278
tp1279
I5
s(g108
V231
p1280
tp1281
I9
s(g12
g219
tp1282
I7
s(g76
V80
p1283
tp1284
I5
s(g12
V251
p1285
tp1286
I3
s(g208
g194
tp1287
I6
s(g916
g966
tp1288
I5
s(g12
V115
p1289
tp1290
I5
s(V11
p1291
g359
tp1292
I4
s(g39
V414
p1293
tp1294
I8
s(g419
V228
p1295
tp1296
I5
s(g18
g77
tp1297
I6
s(g218
V282
p1298
tp1299
I4
s(V168
p1300
g194
tp1301
I3
s(V331
p1302
g28
tp1303
I3
s(g267
V229
p1304
tp1305
I9
s(g787
V227
p1306
tp1307
I5
s(g442
V187
p1308
tp1309
I5
s(g119
V205
p1310
tp1311
I6
s(g542
V147
p1312
tp1313
I8
s(g9
V183
p1314
tp1315
I8
s(g39
V155
p1316
tp1317
I8
s(V349
p1318
V73
p1319
tp1320
I4
s(g1132
g25
tp1321
I6
s(g70
V205
p1322
tp1323
I9
s(g163
V85
p1324
tp1325
I7
s(V172
p1326
V264
p1327
tp1328
I3
s(g502
V205
p1329
tp1330
I9
s(V441
p1331
g848
tp1332
I4
s(g39
V413
p1333
tp1334
I4
s(V49
p1335
g527
tp1336
I3
s(g36
V32
p1337
tp1338
I3
s(g147
V420
p1339
tp1340
I4
s(V141
p1341
V184
p1342
tp1343
I3
s(g1108
V166
p1344
tp1345
I4
s(g916
g28
tp1346
I5
s(g369
g655
tp1347
I8
s(g267
V220
p1348
tp1349
I6
s(V103
p1350
g306
tp1351
I4
s(g273
g1065
tp1352
I4
s(g685
V228
p1353
tp1354
I8
s(g70
g54
tp1355
I8
s(g233
V47
p1356
tp1357
I5
s(g442
V381
p1358
tp1359
I4
s(g312
g271
tp1360
I3
s(g364
V49
p1361
tp1362
I3
s(g1342
V426
p1363
tp1364
I7
s(g187
V139
p1365
tp1366
I4
s(g12
V71
p1367
tp1368
I3
s(g901
V153
p1369
tp1370
I7
s(g442
g130
tp1371
I7
s(g278
g575
tp1372
I5
s(g706
g848
tp1373
I8
s(g685
V427
p1374
tp1375
I8
s(g496
V229
p1376
tp1377
I7
s(g147
V269
p1378
tp1379
I5
s(g64
g28
tp1380
I6
s(g136
g270
tp1381
I6
s(g39
V404
p1382
tp1383
I5
s(g147
V429
p1384
tp1385
I4
s(g169
g65
tp1386
I5
s(g19
V429
p1387
tp1388
I3
s(g168
V395
p1389
tp1390
I4
s(g428
g50
tp1391
I5
s(g163
V391
p1392
tp1393
I5
s(g108
V417
p1394
tp1395
I5
s(g108
V451
p1396
tp1397
I5
s(g108
V303
p1398
tp1399
I5
s(g39
V244
p1400
tp1401
I5
s(g222
g580
tp1402
I8
s(V404
p1403
g28
tp1404
I4
s(g468
g357
tp1405
I6
s(g152
V228
p1406
tp1407
I8
s(g147
V262
p1408
tp1409
I3
s(g76
V220
p1410
tp1411
I8
s(g106
g73
tp1412
I5
s(g169
V155
p1413
tp1414
I5
s(g70
V53
p1415
tp1416
I4
s(g108
g676
tp1417
I7
s(g1199
V227
p1418
tp1419
I5
s(g12
V62
p1420
tp1421
I8
s(g3
g1176
tp1422
I4
s(g231
V412
p1423
tp1424
I6
s(g414
V426
p1425
tp1426
I6
s(g116
V182
p1427
tp1428
I6
s(g15
g65
tp1429
I4
s(g108
g822
tp1430
I5
s(g364
V228
p1431
tp1432
I8
s(g468
g51
tp1433
I4
s(g3
V245
p1434
tp1435
I6
s(g12
V227
p1436
tp1437
I11
s(g158
V220
p1438
tp1439
I4
s(g862
g65
tp1440
I6
s(g992
V229
p1441
tp1442
I7
s(g513
V228
p1443
tp1444
I6
s(g36
V77
p1445
tp1446
I3
s(g12
g1152
tp1447
I4
s(g289
g28
tp1448
I6
s(g233
V368
p1449
tp1450
I3
s(g497
g28
tp1451
I7
s(g211
V426
p1452
tp1453
I9
s(V165
p1454
V227
p1455
tp1456
I5
s(g70
V408
p1457
tp1458
I11
s(V163
p1459
V154
p1460
tp1461
I6
s(g478
g306
tp1462
I5
s(g442
V205
p1463
tp1464
I9
s(g12
V319
p1465
tp1466
I4
s(g39
V184
p1467
tp1468
I7
s(g182
V41
p1469
tp1470
I4
s(g208
g271
tp1471
I6
s(g82
g31
tp1472
I6
s(g625
V186
p1473
tp1474
I5
s(g12
V386
p1475
tp1476
I5
s(g952
g380
tp1477
I4
s(g24
V408
p1478
tp1479
I7
s(V416
p1480
g28
tp1481
I3
s(g50
V215
p1482
tp1483
I8
s(g39
g946
tp1484
I4
s(g147
V43
p1485
tp1486
I6
s(g163
g45
tp1487
I9
s(g70
g1482
tp1488
I8
s(g523
V187
p1489
tp1490
I5
s(g70
V228
p1491
tp1492
I9
s(g676
V227
p1493
tp1494
I7
s(g70
V407
p1495
tp1496
I4
s(g233
V285
p1497
tp1498
I6
s(g70
V74
p1499
tp1500
I5
s(g422
V146
p1501
tp1502
I9
s(V235
p1503
V147
p1504
tp1505
I4
s(V450
p1506
g28
tp1507
I4
s(V294
p1508
g380
tp1509
I4
s(g163
V244
p1510
tp1511
I4
s(g350
g306
tp1512
I4
s(g12
V222
p1513
tp1514
I5
s(g24
V351
p1515
tp1516
I4
s(g1173
V427
p1517
tp1518
I4
s(g442
V371
p1519
tp1520
I5
s(g1326
g54
tp1521
I5
s(g731
g28
tp1522
I3
s(g278
g362
tp1523
I5
s(g105
g28
tp1524
I4
s(g82
g629
tp1525
I6
s(g99
V149
p1526
tp1527
I4
s(V448
p1528
g1342
tp1529
I3
s(g70
V134
p1530
tp1531
I3
s(g19
V412
p1532
tp1533
I5
s(g9
V165
p1534
tp1535
I5
s(g116
V386
p1536
tp1537
I5
s(g12
g669
tp1538
I9
s(g389
g617
tp1539
I11
s(g70
V49
p1540
tp1541
I3
s(g811
g271
tp1542
I4
s(g70
V73
p1543
tp1544
I4
s(g956
g1513
tp1545
I5
s(g1269
g723
tp1546
I7
s(g635
V227
p1547
tp1548
I4
s(g19
g1056
tp1549
I4
s(g706
g865
tp1550
I8
s(g18
g895
tp1551
I8
s(g12
V52
p1552
tp1553
I4
s(g9
V202
p1554
tp1555
I7
s(g70
V318
p1556
tp1557
I5
s(g163
V153
p1558
tp1559
I9
s(g155
V287
p1560
tp1561
I5
s(g389
g39
tp1562
I9
s(g621
g65
tp1563
I5
s(V382
p1564
V227
p1565
tp1566
I7
s(g342
V354
p1567
tp1568
I6
s(V279
p1569
g28
tp1570
I3
s(g33
g7
tp1571
I4
s(g39
V59
p1572
tp1573
I7
s(g880
V46
p1574
tp1575
I5
s(g416
V173
p1576
tp1577
I4
s(g376
V186
p1578
tp1579
I5
s(g108
V186
p1580
tp1581
I9
s(g36
V392
p1582
tp1583
I5
s(g1050
g617
tp1584
I6
s(g201
V431
p1585
tp1586
I5
s(g369
V228
p1587
tp1588
I9
s(g39
V387
p1589
tp1590
I6
s(g79
g1065
tp1591
I4
s(V373
p1592
g28
tp1593
I4
s(g39
V68
p1594
tp1595
I5
s(g376
V17
p1596
tp1597
I4
s(g6
V228
p1598
tp1599
I6
s(g1245
V147
p1600
tp1601
I7
s(g12
g1482
tp1602
I8
s(g70
V380
p1603
tp1604
I3
s(g70
g7
tp1605
I10
s(V379
p1606
g19
tp1607
I4
s(g12
V224
p1608
tp1609
I4
s(V216
p1610
g137
tp1611
I5
s(g163
V382
p1612
tp1613
I7
s(g657
V423
p1614
tp1615
I3
s(g36
V370
p1616
tp1617
I5
s(g152
V186
p1618
tp1619
I8
s(g73
V426
p1620
tp1621
I9
s(g108
V324
p1622
tp1623
I5
s(g12
g1342
tp1624
I7
s(g369
V153
p1625
tp1626
I9
s(g208
V210
p1627
tp1628
I5
s(g364
V155
p1629
tp1630
I8
s(g369
V221
p1631
tp1632
I5
s(g222
g25
tp1633
I8
s(g39
V390
p1634
tp1635
I5
s(V142
p1636
g194
tp1637
I3
s(g448
g28
tp1638
I5
s(g6
V227
p1639
tp1640
I6
s(g116
g47
tp1641
I7
s(g108
V159
p1642
tp1643
I5
s(V447
p1644
g28
tp1645
I3
s(g147
V116
p1646
tp1647
I5
s(g586
V227
p1648
tp1649
I6
s(g1132
V408
p1650
tp1651
I6
s(g422
g240
tp1652
I5
s(g428
g513
tp1653
I3
s(g163
V306
p1654
tp1655
I7
s(g442
V89
p1656
tp1657
I9
s(g444
g865
tp1658
I8
s(g787
g1473
tp1659
I5
s(g1156
g271
tp1660
I4
s(g39
V368
p1661
tp1662
I3
s(g36
V153
p1663
tp1664
I8
s(g822
V186
p1665
tp1666
I5
s(V110
p1667
g655
tp1668
I5
s(g136
V186
p1669
tp1670
I7
s(g267
V408
p1671
tp1672
I9
s(g218
V208
p1673
tp1674
I9
s(g273
g1389
tp1675
I4
s(g36
V105
p1676
tp1677
I4
s(g1005
g317
tp1678
I5
s(g39
V66
p1679
tp1680
I5
s(g18
g1039
tp1681
I5
s(g12
V153
p1682
tp1683
I9
s(g18
g865
tp1684
I8
s(g70
V351
p1685
tp1686
I4
s(g116
g7
tp1687
I10
s(g270
g28
tp1688
I7
s(g1245
V408
p1689
tp1690
I7
s(g444
g429
tp1691
I4
s(g50
V316
p1692
tp1693
I6
s(g50
g194
tp1694
I9
s(g163
V228
p1695
tp1696
I9
s(g163
V13
p1697
tp1698
I7
s(g422
V227
p1699
tp1700
I9
s(g1318
V31
p1701
tp1702
I3
s(g50
g1454
tp1703
I5
s(g39
V327
p1704
tp1705
I4
s(V187
p1706
g357
tp1707
I4
s(g42
g65
tp1708
I7
s(g70
V374
p1709
tp1710
I5
s(g1161
V354
p1711
tp1712
I6
s(g152
V147
p1713
tp1714
I8
s(V196
p1715
g317
tp1716
I3
s(g70
V365
p1717
tp1718
I6
s(g108
g25
tp1719
I9
s(g39
V10
p1720
tp1721
I6
s(g586
V229
p1722
tp1723
I6
s(g36
V264
p1724
tp1725
I3
s(V370
p1726
g54
tp1727
I5
s(g108
V430
p1728
tp1729
I4
s(g862
g28
tp1730
I8
s(g1005
V172
p1731
tp1732
I4
s(g18
V128
p1733
tp1734
I9
s(g379
g869
tp1735
I4
s(V341
p1736
V186
p1737
tp1738
I4
s(g486
g1574
tp1739
I5
s(g24
V153
p1740
tp1741
I7
s(g9
g183
tp1742
I9
s(g442
V421
p1743
tp1744
I3
s(g497
V205
p1745
tp1746
I7
s(g389
g359
tp1747
I5
s(g141
g362
tp1748
I4
s(V396
p1749
g54
tp1750
I5
s(g125
V119
p1751
tp1752
I4
s(g108
g798
tp1753
I4
s(g50
V114
p1754
tp1755
I3
s(g336
g396
tp1756
I6
s(V365
p1757
g1289
tp1758
I5
s(V346
p1759
g966
tp1760
I5
s(g30
V9
p1761
tp1762
I5
s(g502
V210
p1763
tp1764
I7
s(g50
V206
p1765
tp1766
I4
s(g70
V393
p1767
tp1768
I3
s(V434
p1769
g34
tp1770
I4
s(g486
g1469
tp1771
I4
s(g201
V11
p1772
tp1773
I4
s(g1092
g28
tp1774
I5
s(g1217
g173
tp1775
I6
s(V364
p1776
g895
tp1777
I4
s(g116
g575
tp1778
I6
s(g147
V302
p1779
tp1780
I6
s(V292
p1781
g54
tp1782
I5
s(g214
g380
tp1783
I4
s(g155
V309
p1784
tp1785
I4
s(g218
V229
p1786
tp1787
I9
s(g6
V205
p1788
tp1789
I6
s(g39
V427
p1790
tp1791
I9
s(g108
V152
p1792
tp1793
I5
s(g9
V89
p1794
tp1795
I11
s(V29
p1796
g28
tp1797
I3
s(g70
V159
p1798
tp1799
I6
s(g168
g1574
tp1800
I5
s(g163
V111
p1801
tp1802
I7
s(V410
p1803
g28
tp1804
I4
s(g36
V173
p1805
tp1806
I8
s(V316
p1807
V153
p1808
tp1809
I6
s(g9
V217
p1810
tp1811
I9
s(g442
g470
tp1812
I7
s(g108
g613
tp1813
I3
s(g70
g42
tp1814
I9
s(g19
V410
p1815
tp1816
I4
s(g218
g1513
tp1817
I5
s(g36
V288
p1818
tp1819
I5
s(V366
p1820
V390
p1821
tp1822
I3
s(g50
V451
p1823
tp1824
I5
s(g82
V205
p1825
tp1826
I7
s(g650
V391
p1827
tp1828
I5
s(g36
V409
p1829
tp1830
I4
s(g244
V186
p1831
tp1832
I6
s(g560
g1106
tp1833
I4
s(g70
V150
p1834
tp1835
I4
s(g12
V280
p1836
tp1837
I5
s(V148
p1838
g28
tp1839
I3
s(g610
g28
tp1840
I6
s(g182
g1574
tp1841
I5
s(g610
g1187
tp1842
I5
s(g196
g21
tp1843
I4
s(g1152
V365
p1844
tp1845
I3
s(g442
V227
p1846
tp1847
I9
s(g50
V427
p1848
tp1849
I9
s(g12
g1257
tp1850
I6
s(g108
V230
p1851
tp1852
I9
s(g76
g248
tp1853
I7
s(g451
g194
tp1854
I6
s(g478
V173
p1855
tp1856
I5
s(g630
g1161
tp1857
I4
s(g497
g1185
tp1858
I7
s(g1269
g1763
tp1859
I7
s(g12
V426
p1860
tp1861
I9
s(V255
p1862
g28
tp1863
I3
s(g147
V285
p1864
tp1865
I6
s(V406
p1866
g823
tp1867
I3
s(g1564
g28
tp1868
I7
s(g50
V229
p1869
tp1870
I11
s(g50
V112
p1871
tp1872
I5
s(g442
V186
p1873
tp1874
I9
s(g73
g359
tp1875
I6
s(g1005
g757
tp1876
I3
s(g1132
g359
tp1877
I6
s(g39
V154
p1878
tp1879
I6
s(g19
V451
p1880
tp1881
I4
s(g610
g25
tp1882
I4
s(g497
V186
p1883
tp1884
I7
s(g36
V147
p1885
tp1886
I8
s(g676
g194
tp1887
I7
s(g39
V122
p1888
tp1889
I7
s(g76
g7
tp1890
I10
s(V32
p1891
V186
p1892
tp1893
I3
s(g1331
g1701
tp1894
I3
s(g50
V365
p1895
tp1896
I6
s(g972
V376
p1897
tp1898
I6
s(g73
V248
p1899
tp1900
I4
s(g1350
g65
tp1901
I4
s(g1326
V155
p1902
tp1903
I5
s(g505
g846
tp1904
I5
s(g931
g28
tp1905
I4
s(g50
V220
p1906
tp1907
I8
s(g39
V135
p1908
tp1909
I9
s(g803
g173
tp1910
I4
s(g3
g1211
tp1911
I8
s(V210
p1912
V220
p1913
tp1914
I7
s(g244
g601
tp1915
I6
s(g12
V302
p1916
tp1917
I6
s(g163
V417
p1918
tp1919
I5
s(g1728
g25
tp1920
I4
s(g364
V48
p1921
tp1922
I5
s(g706
g1482
tp1923
I7
s(g73
V408
p1924
tp1925
I9
s(V70
p1926
g28
tp1927
I6
s(g76
V233
p1928
tp1929
I9
s(g64
V186
p1930
tp1931
I6
s(g706
g28
tp1932
I9
s(g201
V449
p1933
tp1934
I4
s(g496
V228
p1935
tp1936
I6
s(g12
V204
p1937
tp1938
I5
s(V77
p1939
g65
tp1940
I3
s(g1528
g28
tp1941
I3
s(g502
g279
tp1942
I9
s(g70
V126
p1943
tp1944
I3
s(g108
V128
p1945
tp1946
I9
s(V95
p1947
g28
tp1948
I3
s(g12
V61
p1949
tp1950
I7
s(g1199
V376
p1951
tp1952
I4
s(g654
g540
tp1953
I4
s(g1610
V210
p1954
tp1955
I5
s(g108
g1480
tp1956
I4
s(g147
V80
p1957
tp1958
I5
s(g70
V119
p1959
tp1960
I5
s(g697
V422
p1961
tp1962
I4
s(g468
g429
tp1963
I5
s(g141
V119
p1964
tp1965
I4
s(g244
g966
tp1966
I6
s(g3
V369
p1967
tp1968
I4
s(g12
V267
p1969
tp1970
I3
s(g73
V227
p1971
tp1972
I9
s(g163
V203
p1973
tp1974
I5
s(g36
V186
p1975
tp1976
I8
s(g158
V233
p1977
tp1978
I5
s(V401
p1979
g54
tp1980
I4
s(g99
V186
p1981
tp1982
I6
s(g39
V136
p1983
tp1984
I8
s(g42
V119
p1985
tp1986
I5
s(V211
p1987
g194
tp1988
I6
s(g70
V248
p1989
tp1990
I5
s(g147
V261
p1991
tp1992
I6
s(g76
g71
tp1993
I11
s(g12
V288
p1994
tp1995
I5
s(g30
g629
tp1996
I6
s(g1392
V153
p1997
tp1998
I5
s(g39
V200
p1999
tp2000
I4
s(g18
g566
tp2001
I6
s(g9
V125
p2002
tp2003
I6
s(g82
g1761
tp2004
I5
s(g502
g28
tp2005
I9
s(g12
g54
tp2006
I8
s(g267
V205
p2007
tp2008
I9
s(g379
g848
tp2009
I4
s(g233
V309
p2010
tp2011
I4
s(g47
V228
p2012
tp2013
I7
s(g30
V257
p2014
tp2015
I3
s(g108
V245
p2016
tp2017
I6
s(g496
g194
tp2018
I7
s(g529
g803
tp2019
I4
s(g193
g617
tp2020
I7
s(g50
V202
p2021
tp2022
I7
s(g1199
g28
tp2023
I4
s(g1341
V137
p2024
tp2025
I5
s(g70
V243
p2026
tp2027
I6
s(g158
V221
p2028
tp2029
I4
s(g1987
g28
tp2030
I5
s(g70
V173
p2031
tp2032
I9
s(g12
V121
p2033
tp2034
I3
s(g50
V125
p2035
tp2036
I6
s(g1715
g279
tp2037
I5
s(g486
V157
p2038
tp2039
I9
s(V355
p2040
g173
tp2041
I4
s(g76
g606
tp2042
I3
s(V394
p2043
V47
p2044
tp2045
I3
s(g163
V89
p2046
tp2047
I10
s(g39
V269
p2048
tp2049
I4
s(g70
V222
p2050
tp2051
I5
s(g233
V426
p2052
tp2053
I8
s(g12
V318
p2054
tp2055
I5
s(g437
V147
p2056
tp2057
I6
s(g163
V421
p2058
tp2059
I3
s(V76
p2060
g461
tp2061
I4
s(g39
V185
p2062
tp2063
I8
s(g787
V280
p2064
tp2065
I3
s(g218
g65
tp2066
I8
s(g364
V116
p2067
tp2068
I4
s(g12
V387
p2069
tp2070
I6
s(V100
p2071
V186
p2072
tp2073
I3
s(g542
V238
p2074
tp2075
I8
s(g12
V128
p2076
tp2077
I9
s(g1318
V147
p2078
tp2079
I4
s(g163
g1763
tp2080
I7
s(g414
V243
p2081
tp2082
I6
s(g12
g240
tp2083
I5
s(g1269
g28
tp2084
I7
s(g147
V40
p2085
tp2086
I5
s(V314
p2087
g28
tp2088
I3
s(g18
g1482
tp2089
I8
s(g376
g1176
tp2090
I3
s(g1767
g28
tp2091
I3
s(g70
V229
p2092
tp2093
I11
s(g39
V302
p2094
tp2095
I6
s(g147
V155
p2096
tp2097
I9
s(g1326
g1410
tp2098
I5
s(V300
p2099
g137
tp2100
I6
s(g422
V145
p2101
tp2102
I9
s(g12
g1115
tp2103
I6
s(g523
V227
p2104
tp2105
I6
s(g787
g28
tp2106
I5
s(g12
V60
p2107
tp2108
I4
s(g442
V115
p2109
tp2110
I4
s(g12
V14
p2111
tp2112
I7
s(g1217
g83
tp2113
I6
s(g298
V145
p2114
tp2115
I8
s(g1105
g54
tp2116
I5
s(g163
V171
p2117
tp2118
I6
s(g12
V219
p2119
tp2120
I3
s(g163
V217
p2121
tp2122
I8
s(g582
V228
p2123
tp2124
I7
s(g442
V363
p2125
tp2126
I4
s(g70
V135
p2127
tp2128
I9
s(g244
V230
p2129
tp2130
I6
s(g992
g271
tp2131
I7
s(g70
V188
p2132
tp2133
I6
s(g560
g65
tp2134
I4
s(g499
V13
p2135
tp2136
I3
s(g116
g1733
tp2137
I9
s(g39
V53
p2138
tp2139
I4
s(g155
V388
p2140
tp2141
I5
s(g108
V311
p2142
tp2143
I5
s(g880
g1469
tp2144
I4
s(g437
g1526
tp2145
I6
s(g1759
V184
p2146
tp2147
I5
s(g610
V230
p2148
tp2149
I6
s(V418
p2150
g28
tp2151
I3
s(g1781
g445
tp2152
I5
s(g379
g25
tp2153
I4
s(g36
V394
p2154
tp2155
I4
s(g1283
g194
tp2156
I4
s(V212
p2157
V427
p2158
tp2159
I6
s(g18
g554
tp2160
I9
s(g39
V381
p2161
tp2162
I3
s(g745
g669
tp2163
I5
s(g155
V286
p2164
tp2165
I5
s(g70
V413
p2166
tp2167
I4
s(g389
V132
p2168
tp2169
I4
s(g240
g28
tp2170
I4
s(g535
g633
tp2171
I4
s(g1032
g1329
tp2172
I4
s(g39
V316
p2173
tp2174
I6
s(g163
V227
p2175
tp2176
I10
s(g208
V84
p2177
tp2178
I7
s(g70
g1130
tp2179
I6
s(g39
V58
p2180
tp2181
I8
s(g108
g1154
tp2182
I5
s(g12
V5
p2183
tp2184
I3
s(g106
V365
p2185
tp2186
I3
s(g364
V47
p2187
tp2188
I5
s(g422
V169
p2189
tp2190
I5
s(g1715
V186
p2191
tp2192
I5
s(g361
g2191
tp2193
I6
s(g1005
g352
tp2194
I6
s(g208
V216
p2195
tp2196
I5
s(g12
V253
p2197
tp2198
I3
s(V256
p2199
g28
tp2200
I3
s(g12
V68
p2201
tp2202
I5
s(g1715
g340
tp2203
I5
s(g502
g407
tp2204
I9
s(g50
V304
p2205
tp2206
I8
s(g376
V16
p2207
tp2208
I6
s(g267
V248
p2209
tp2210
I5
s(g70
V186
p2211
tp2212
I11
s(g336
V227
p2213
tp2214
I6
s(V337
p2215
g1574
tp2216
I3
s(g404
g137
tp2217
I3
s(g437
V440
p2218
tp2219
I5
s(g147
V118
p2220
tp2221
I6
s(g158
V147
p2222
tp2223
I6
s(g1606
g4
tp2224
I4
s(g108
V409
p2225
tp2226
I5
s(g451
g28
tp2227
I6
s(g465
g1015
tp2228
I5
s(g108
V327
p2229
tp2230
I4
s(g1256
V227
p2231
tp2232
I7
s(g579
V186
p2233
tp2234
I4
s(g12
g334
tp2235
I8
s(g706
g317
tp2236
I5
s(g289
g194
tp2237
I6
s(g108
V58
p2238
tp2239
I8
s(g478
g7
tp2240
I5
s(g513
V427
p2241
tp2242
I6
s(V170
p2243
g615
tp2244
I5
s(g39
V60
p2245
tp2246
I4
s(g422
V408
p2247
tp2248
I9
s(g1136
V173
p2249
tp2250
I4
s(g12
V116
p2251
tp2252
I5
s(g12
g359
tp2253
I6
s(g303
g268
tp2254
I4
s(g70
V149
p2255
tp2256
I8
s(g444
g966
tp2257
I8
s(g116
V229
p2258
tp2259
I11
s(V97
p2260
g966
tp2261
I5
s(g50
V227
p2262
tp2263
I11
s(g147
V111
p2264
tp2265
I7
s(g76
V141
p2266
tp2267
I5
s(g1807
g746
tp2268
I3
s(g442
g7
tp2269
I9
s(g50
V188
p2270
tp2271
I6
s(g972
V128
p2272
tp2273
I8
s(g18
g357
tp2274
I7
s(g273
V392
p2275
tp2276
I4
s(g36
V104
p2277
tp2278
I4
s(g39
V67
p2279
tp2280
I3
s(g119
V186
p2281
tp2282
I8
s(g422
g65
tp2283
I7
s(g9
V137
p2284
tp2285
I6
s(g182
g461
tp2286
I9
s(V57
p2287
V153
p2288
tp2289
I6
s(g2218
g28
tp2290
I5
s(g70
V352
p2291
tp2292
I3
s(V374
p2293
g445
tp2294
I5
s(V432
p2295
g25
tp2296
I4
s(g1132
g28
tp2297
I5
s(g122
V147
p2298
tp2299
I5
s(g442
g248
tp2300
I7
s(g2260
g28
tp2301
I5
s(g267
g1610
tp2302
I5
s(g1838
V186
p2303
tp2304
I3
s(g468
g271
tp2305
I5
s(g422
g2287
tp2306
I4
s(g657
V282
p2307
tp2308
I4
s(g1115
g615
tp2309
I6
s(g505
g47
tp2310
I5
s(V108
p2311
g47
tp2312
I4
s(g50
V324
p2313
tp2314
I4
s(g193
g279
tp2315
I7
s(g39
V324
p2316
tp2317
I5
s(g1350
V186
p2318
tp2319
I4
s(g523
V155
p2320
tp2321
I5
s(g291
V205
p2322
tp2323
I5
s(g147
V221
p2324
tp2325
I5
s(g116
g28
tp2326
I11
s(g119
V311
p2327
tp2328
I6
s(g586
V228
p2329
tp2330
I6
s(g502
V147
p2331
tp2332
I9
s(g992
g28
tp2333
I7
s(g147
g2183
tp2334
I3
s(V175
p2335
g54
tp2336
I4
s(g610
V147
p2337
tp2338
I5
s(g782
g25
tp2339
I5
s(g486
g2044
tp2340
I5
s(g442
g28
tp2341
I9
s(g218
V263
p2342
tp2343
I4
s(g18
g617
tp2344
I11
s(g298
V229
p2345
tp2346
I8
s(g1979
g445
tp2347
I4
s(g523
V215
p2348
tp2349
I6
s(g47
g890
tp2350
I6
s(g811
g28
tp2351
I4
s(V442
p2352
g380
tp2353
I5
s(g163
V304
p2354
tp2355
I7
s(V178
p2356
g194
tp2357
I4
s(V332
p2358
g268
tp2359
I5
s(g218
g2157
tp2360
I6
s(g921
g28
tp2361
I4
s(g108
V14
p2362
tp2363
I7
s(g2311
g25
tp2364
I4
s(g442
V153
p2365
tp2366
I9
s(g1245
g25
tp2367
I7
s(g364
V211
p2368
tp2369
I5
s(g9
g523
tp2370
I6
s(g1061
g28
tp2371
I5
s(g233
g1257
tp2372
I6
s(g350
V227
p2373
tp2374
I4
s(g70
V329
p2375
tp2376
I4
s(V335
p2377
g380
tp2378
I5
s(g70
V63
p2379
tp2380
I6
s(g70
V161
p2381
tp2382
I5
s(g39
g240
tp2383
I5
s(g2293
g47
tp2384
I3
s(g364
V285
p2385
tp2386
I4
s(g1050
g865
tp2387
I6
s(g113
g601
tp2388
I5
s(g218
V228
p2389
tp2390
I9
s(g515
g28
tp2391
I5
s(g218
g1482
tp2392
I8
s(g50
V387
p2393
tp2394
I6
s(g116
V426
p2395
tp2396
I9
s(g1866
g1239
tp2397
I3
s(g168
g865
tp2398
I8
s(g147
V300
p2399
tp2400
I6
s(g39
V426
p2401
tp2402
I8
s(g496
V186
p2403
tp2404
I7
s(g1005
g54
tp2405
I6
s(g168
g2044
tp2406
I5
s(g12
g289
tp2407
I6
s(g1728
V147
p2408
tp2409
I4
s(V190
p2410
g380
tp2411
I5
s(g2043
g54
tp2412
I4
s(g1341
V229
p2413
tp2414
I5
s(g70
g390
tp2415
I7
s(g36
V174
p2416
tp2417
I6
s(V194
p2418
V186
p2419
tp2420
I3
s(V348
p2421
g279
tp2422
I4
s(g2377
g2078
tp2423
I5
s(g39
V159
p2424
tp2425
I5
s(g1757
g28
tp2426
I6
s(g342
g803
tp2427
I4
s(g1606
g796
tp2428
I4
s(g1636
g2266
tp2429
I3
s(g880
g2044
tp2430
I5
s(g502
g50
tp2431
I9
s(g233
V220
p2432
tp2433
I8
s(g70
V183
p2434
tp2435
I8
s(g364
V41
p2436
tp2437
I4
s(g1979
g487
tp2438
I3
s(g70
V151
p2439
tp2440
I3
s(g73
V57
p2441
tp2442
I5
s(g231
V429
p2443
tp2444
I4
s(g12
V167
p2445
tp2446
I6
s(g70
V327
p2447
tp2448
I4
s(g745
g28
tp2449
I5
s(g9
V186
p2450
tp2451
I11
s(g9
V269
p2452
tp2453
I5
s(g39
V176
p2454
tp2455
I8
s(g12
V380
p2456
tp2457
I3
s(g70
V200
p2458
tp2459
I4
s(g1056
g1176
tp2460
I4
s(g502
g1673
tp2461
I9
s(g502
g65
tp2462
I7
s(g1125
V56
p2463
tp2464
I3
s(g108
V237
p2465
tp2466
I4
s(g36
V401
p2467
tp2468
I4
s(g50
V228
p2469
tp2470
I9
s(g1769
g54
tp2471
I4
s(g39
V416
p2472
tp2473
I4
s(g442
V147
p2474
tp2475
I9
s(g497
g7
tp2476
I7
s(g73
V50
p2477
tp2478
I3
s(g298
g194
tp2479
I6
s(g147
V284
p2480
tp2481
I3
s(V378
p2482
V243
p2483
tp2484
I4
s(g442
V185
p2485
tp2486
I7
s(g116
V74
p2487
tp2488
I5
s(g119
V207
p2489
tp2490
I5
s(g2358
g25
tp2491
I5
s(g39
V157
p2492
tp2493
I9
s(g12
g633
tp2494
I8
s(g1005
V186
p2495
tp2496
I6
s(g468
g100
tp2497
I6
s(g36
V146
p2498
tp2499
I8
s(V433
p2500
g2463
tp2501
I3
s(g116
g1761
tp2502
I5
s(g108
V238
p2503
tp2504
I8
s(g364
V215
p2505
tp2506
I8
s(g76
g1084
tp2507
I11
s(g621
V89
p2508
tp2509
I5
s(g39
V409
p2510
tp2511
I5
s(g36
V220
p2512
tp2513
I8
s(g39
V320
p2514
tp2515
I4
s(g389
g615
tp2516
I9
s(g164
g2373
tp2517
I4
s(V254
p2518
g28
tp2519
I3
s(g1024
g28
tp2520
I4
s(g158
V14
p2521
tp2522
I6
s(g50
V221
p2523
tp2524
I5
s(g116
g1096
tp2525
I9
s(g70
V412
p2526
tp2527
I6
s(g169
V186
p2528
tp2529
I5
s(g233
V413
p2530
tp2531
I4
s(g233
V414
p2532
tp2533
I8
s(g1751
V426
p2534
tp2535
I5
s(g12
V303
p2536
tp2537
I5
s(g73
g28
tp2538
I9
s(g163
V414
p2539
tp2540
I8
s(g108
V248
p2541
tp2542
I5
s(g70
V425
p2543
tp2544
I4
s(g270
V186
p2545
tp2546
I7
s(g784
g362
tp2547
I5
s(g359
V426
p2548
tp2549
I6
s(g657
V425
p2550
tp2551
I3
s(g70
g1096
tp2552
I9
s(g444
g54
tp2553
I8
s(g36
g922
tp2554
I8
s(g42
V266
p2555
tp2556
I4
s(g513
V220
p2557
tp2558
I5
s(g36
g444
tp2559
I8
s(g70
V125
p2560
tp2561
I6
s(g233
V155
p2562
tp2563
I9
s(g352
g410
tp2564
I6
s(g169
V227
p2565
tp2566
I5
s(g47
V159
p2567
tp2568
I5
s(g444
g317
tp2569
I5
s(g1245
g77
tp2570
I4
s(g39
g61
tp2571
I5
s(g233
V287
p2572
tp2573
I5
s(g222
g1526
tp2574
I8
s(g163
V202
p2575
tp2576
I7
s(g233
V153
p2577
tp2578
I9
s(g625
g445
tp2579
I5
s(g560
g306
tp2580
I4
s(g39
V188
p2581
tp2582
I6
s(g147
V260
p2583
tp2584
I3
s(g119
V153
p2585
tp2586
I8
s(g76
g966
tp2587
I9
s(g70
V175
p2588
tp2589
I4
s(g291
g65
tp2590
I5
s(g64
V45
p2591
tp2592
I3
s(g76
g91
tp2593
I4
s(g502
g615
tp2594
I8
s(g798
g25
tp2595
I4
s(g12
g390
tp2596
I7
s(g108
g2335
tp2597
I4
s(g1926
g652
tp2598
I6
s(g96
V390
p2599
tp2600
I4
s(g152
V227
p2601
tp2602
I8
s(g163
V427
p2603
tp2604
I9
s(g39
V183
p2605
tp2606
I7
s(g70
g19
tp2607
I6
s(g158
V371
p2608
tp2609
I5
s(g158
V226
p2610
tp2611
I4
s(g50
g28
tp2612
I11
s(g361
g28
tp2613
I6
s(g21
V152
p2614
tp2615
I3
s(g70
g456
tp2616
I8
s(g248
g194
tp2617
I7
s(g12
V122
p2618
tp2619
I7
s(g168
V147
p2620
tp2621
I8
s(g85
V427
p2622
tp2623
I6
s(g152
g194
tp2624
I8
s(g76
g28
tp2625
I11
s(g1245
g848
tp2626
I7
s(g76
V178
p2627
tp2628
I4
s(g147
V46
p2629
tp2630
I5
s(g76
g757
tp2631
I5
s(g1796
g1892
tp2632
I3
s(g70
g77
tp2633
I6
s(g621
g194
tp2634
I5
s(g12
V317
p2635
tp2636
I4
s(g1781
g28
tp2637
I5
s(g182
g2044
tp2638
I5
s(g163
V61
p2639
tp2640
I7
s(g9
V364
p2641
tp2642
I3
s(g18
V136
p2643
tp2644
I8
s(g364
V117
p2645
tp2646
I7
s(g1912
g28
tp2647
I7
s(g502
g317
tp2648
I5
s(g389
V173
p2649
tp2650
I9
s(g2287
V220
p2651
tp2652
I6
s(g12
g276
tp2653
I4
s(g352
g919
tp2654
I3
s(g361
g279
tp2655
I4
s(g513
g47
tp2656
I5
s(g147
V41
p2657
tp2658
I4
s(g12
g53
tp2659
I5
s(g972
g633
tp2660
I5
s(g39
V261
p2661
tp2662
I6
s(g39
V303
p2663
tp2664
I5
s(g676
V229
p2665
tp2666
I7
s(g187
V229
p2667
tp2668
I6
s(g116
V122
p2669
tp2670
I7
s(g211
g28
tp2671
I9
s(g163
V282
p2672
tp2673
I4
s(g12
V310
p2674
tp2675
I4
s(g218
g633
tp2676
I8
s(g1132
g422
tp2677
I5
s(g182
g487
tp2678
I5
s(g198
g183
tp2679
I9
s(g513
g1211
tp2680
I6
s(g36
g1564
tp2681
I5
s(g1508
V186
p2682
tp2683
I4
s(g76
V112
p2684
tp2685
I5
s(g9
V207
p2686
tp2687
I8
s(g298
g654
tp2688
I4
s(g39
V283
p2689
tp2690
I3
s(V409
p2691
g2191
tp2692
I5
s(g155
V280
p2693
tp2694
I5
s(g147
V48
p2695
tp2696
I5
s(g70
g2643
tp2697
I8
s(g1749
V186
p2698
tp2699
I5
s(V315
p2700
g28
tp2701
I3
s(g12
V151
p2702
tp2703
I3
s(g82
g62
tp2704
I8
s(g422
g966
tp2705
I9
s(g172
V354
p2706
tp2707
I6
s(g689
g1211
tp2708
I3
s(g422
g566
tp2709
I6
s(g18
V229
p2710
tp2711
I11
s(V399
p2712
g334
tp2713
I5
s(g2260
V186
p2714
tp2715
I5
s(g419
g28
tp2716
I5
s(g1759
g28
tp2717
I5
s(V312
p2718
g28
tp2719
I4
s(g248
g412
tp2720
I7
s(g155
V289
p2721
tp2722
I8
s(g267
g194
tp2723
I9
s(g85
V186
p2724
tp2725
I6
s(g376
V18
p2726
tp2727
I4
s(g278
g601
tp2728
I5
s(g1891
g28
tp2729
I3
s(g12
g1763
tp2730
I7
s(g505
g566
tp2731
I6
s(g233
V388
p2732
tp2733
I5
s(g163
V389
p2734
tp2735
I5
s(g50
V245
p2736
tp2737
I6
s(g389
V227
p2738
tp2739
I11
s(g108
V329
p2740
tp2741
I4
s(g39
V364
p2742
tp2743
I4
s(g1196
V56
p2744
tp2745
I3
s(g108
V368
p2746
tp2747
I3
s(g163
V316
p2748
tp2749
I6
s(g972
V125
p2750
tp2751
I6
s(g706
V186
p2752
tp2753
I9
s(g163
V114
p2754
tp2755
I3
s(g1245
V145
p2756
tp2757
I7
s(g389
V147
p2758
tp2759
I11
s(g382
g194
tp2760
I3
s(g486
g858
tp2761
I7
s(g502
g566
tp2762
I6
s(g2691
g334
tp2763
I5
s(g590
g1954
tp2764
I7
s(g364
V357
p2765
tp2766
I3
s(g108
V326
p2767
tp2768
I4
s(g442
V411
p2769
tp2770
I3
s(g50
V186
p2771
tp2772
I11
s(g465
g65
tp2773
I5
s(g108
V59
p2774
tp2775
I7
s(g1014
g306
tp2776
I3
s(g364
V153
p2777
tp2778
I8
s(g600
g28
tp2779
I5
s(g2482
g796
tp2780
I4
s(g478
g1185
tp2781
I5
s(g119
V89
p2782
tp2783
I8
s(V17
p2784
g1761
tp2785
I4
s(g122
V145
p2786
tp2787
I5
s(g1005
g1257
tp2788
I6
s(g389
g62
tp2789
I11
s(g116
g940
tp2790
I6
s(V422
p2791
g858
tp2792
I4
s(g298
V110
p2793
tp2794
I3
s(g76
V146
p2795
tp2796
I11
s(g2377
g25
tp2797
I5
s(g389
g2710
tp2798
I11
s(g12
V260
p2799
tp2800
I3
s(g12
V324
p2801
tp2802
I5
s(g231
V325
p2803
tp2804
I4
s(g267
g1912
tp2805
I6
s(g448
V227
p2806
tp2807
I5
s(V344
p2808
g268
tp2809
I4
s(g39
V322
p2810
tp2811
I4
s(g201
V135
p2812
tp2813
I6
s(V371
p2814
g28
tp2815
I5
s(g50
V203
p2816
tp2817
I5
s(g300
g65
tp2818
I3
s(g9
V136
p2819
tp2820
I8
s(g1454
V268
p2821
tp2822
I4
s(g1132
g1669
tp2823
I6
s(g586
g1084
tp2824
I6
s(g147
V227
p2825
tp2826
I11
s(g108
V136
p2827
tp2828
I8
s(g33
g194
tp2829
I4
s(g1749
g445
tp2830
I5
s(g414
g796
tp2831
I6
s(g108
V167
p2832
tp2833
I6
s(g108
V285
p2834
tp2835
I6
s(g1125
V123
p2836
tp2837
I3
s(g267
g406
tp2838
I4
s(g1459
V426
p2839
tp2840
I6
s(g1506
g340
tp2841
I4
s(g70
V127
p2842
tp2843
I6
s(g12
V200
p2844
tp2845
I4
s(g47
V227
p2846
tp2847
I7
s(g39
V325
p2848
tp2849
I4
s(g39
V208
p2850
tp2851
I9
s(g152
V145
p2852
tp2853
I8
s(g862
g198
tp2854
I8
s(g36
V422
p2855
tp2856
I4
s(g2311
g422
tp2857
I4
s(g12
V259
p2858
tp2859
I5
s(g147
V220
p2860
tp2861
I8
s(g61
g28
tp2862
I7
s(g657
V153
p2863
tp2864
I6
s(g502
g2795
tp2865
I9
s(g460
g291
tp2866
I4
s(g47
g846
tp2867
I5
s(g336
g7
tp2868
I6
s(g108
V427
p2869
tp2870
I9
s(g9
V146
p2871
tp2872
I11
s(g486
g183
tp2873
I9
s(g419
V186
p2874
tp2875
I5
s(g2808
g407
tp2876
I4
s(g2109
V302
p2877
tp2878
I5
s(g706
g279
tp2879
I8
s(g76
g811
tp2880
I4
s(g442
V423
p2881
tp2882
I3
s(g298
V408
p2883
tp2884
I8
s(g529
g173
tp2885
I5
s(g12
V209
p2886
tp2887
I3
s(g685
V155
p2888
tp2889
I8
s(g1503
g25
tp2890
I4
s(g505
g635
tp2891
I3
s(g50
V116
p2892
tp2893
I5
s(g1947
g966
tp2894
I3
s(g106
V128
p2895
tp2896
I3
s(g325
g28
tp2897
I4
s(g39
g513
tp2898
I6
s(g70
V451
p2899
tp2900
I5
s(g460
g7
tp2901
I4
s(g2311
g848
tp2902
I3
s(g50
V208
p2903
tp2904
I9
s(g382
g966
tp2905
I4
s(g70
V328
p2906
tp2907
I4
s(g1331
g25
tp2908
I4
s(g141
g7
tp2909
I4
s(g529
V356
p2910
tp2911
I4
s(g70
g895
tp2912
I8
s(g1706
g1565
tp2913
I5
s(g147
V52
p2914
tp2915
I4
s(g1136
g65
tp2916
I4
s(g116
V302
p2917
tp2918
I6
s(g542
V93
p2919
tp2920
I8
s(g478
g2724
tp2921
I5
s(g218
g194
tp2922
I9
s(g208
g28
tp2923
I7
s(g231
V324
p2924
tp2925
I5
s(g1105
g28
tp2926
I5
s(g1341
g194
tp2927
I4
s(g168
g429
tp2928
I5
s(g1050
g966
tp2929
I6
s(g1136
g306
tp2930
I4
s(g155
V426
p2931
tp2932
I8
s(g2293
g194
tp2933
I4
s(g218
g28
tp2934
I9
s(g12
V161
p2935
tp2936
I5
s(g671
g173
tp2937
I6
s(g70
V321
p2938
tp2939
I4
s(g2410
g7
tp2940
I5
s(g442
g1513
tp2941
I5
s(g39
V158
p2942
tp2943
I6
s(g39
V162
p2944
tp2945
I5
s(g119
V408
p2946
tp2947
I8
s(g706
g938
tp2948
I9
s(g880
g487
tp2949
I5
s(g1239
V228
p2950
tp2951
I6
s(g50
V391
p2952
tp2953
I5
s(g502
g7
tp2954
I9
s(g99
g723
tp2955
I6
s(g12
g503
tp2956
I7
s(g155
V365
p2957
tp2958
I6
s(g39
V418
p2959
tp2960
I3
s(g64
V155
p2961
tp2962
I6
s(g70
V326
p2963
tp2964
I4
s(g83
V352
p2965
tp2966
I6
s(g108
g513
tp2967
I5
s(g862
g194
tp2968
I8
s(g465
g71
tp2969
I5
s(g12
g183
tp2970
I9
s(g784
g865
tp2971
I5
s(g9
V268
p2972
tp2973
I4
s(g39
V175
p2974
tp2975
I4
s(g1569
V186
p2976
tp2977
I3
s(g116
g566
tp2978
I6
s(g73
V124
p2979
tp2980
I5
s(g1088
g2710
tp2981
I3
s(g542
g19
tp2982
I5
s(g108
g739
tp2983
I4
s(g36
V402
p2984
tp2985
I5
s(g39
g846
tp2986
I5
s(g18
g615
tp2987
I9
s(g47
V158
p2988
tp2989
I6
s(g15
g28
tp2990
I4
s(g39
V417
p2991
tp2992
I5
s(g163
V168
p2993
tp2994
I3
s(g61
g65
tp2995
I4
s(g1171
V352
p2996
tp2997
I5
s(g2718
V52
p2998
tp2999
I4
s(g147
V287
p3000
tp3001
I5
s(g42
g566
tp3002
I6
s(g12
g111
tp3003
I3
s(g278
g1669
tp3004
I5
s(g2482
g19
tp3005
I4
s(g163
V390
p3006
tp3007
I3
s(g18
g938
tp3008
I11
s(g116
g652
tp3009
I9
s(g233
V43
p3010
tp3011
I6
s(g706
g1096
tp3012
I9
s(g42
V421
p3013
tp3014
I3
s(g442
g657
tp3015
I7
s(g108
g194
tp3016
I9
s(g862
g453
tp3017
I4
s(g1342
V205
p3018
tp3019
I7
s(g278
g633
tp3020
I4
s(g9
V230
p3021
tp3022
I11
s(g1273
g796
tp3023
I3
s(g39
V408
p3024
tp3025
I9
s(g222
V412
p3026
tp3027
I6
s(g1987
g396
tp3028
I6
s(g1061
g271
tp3029
I3
s(g76
V229
p3030
tp3031
I11
s(g979
g2998
tp3032
I4
s(g2410
V186
p3033
tp3034
I5
s(g1807
V282
p3035
tp3036
I4
s(g1706
g271
tp3037
I5
s(g685
V227
p3038
tp3039
I8
s(g442
V382
p3040
tp3041
I7
s(g542
g1526
tp3042
I8
s(g39
V248
p3043
tp3044
I5
s(g155
V153
p3045
tp3046
I8
s(g163
V415
p3047
tp3048
I3
s(g1300
g289
tp3049
I3
s(g163
V208
p3050
tp3051
I9
s(g12
V76
p3052
tp3053
I4
s(g50
V159
p3054
tp3055
I6
s(g116
V249
p3056
tp3057
I6
s(g706
g1015
tp3058
I9
s(g1050
g274
tp3059
I6
s(g650
g28
tp3060
I7
s(g1039
V426
p3061
tp3062
I5
s(g12
V307
p3063
tp3064
I4
s(g70
V307
p3065
tp3066
I4
s(g136
g28
tp3067
I7
s(g36
V228
p3068
tp3069
I8
s(g956
g823
tp3070
I9
s(g178
g65
tp3071
I4
s(g76
V139
p3072
tp3073
I4
s(g36
g1769
tp3074
I4
s(g70
V124
p3075
tp3076
I5
s(g1454
V228
p3077
tp3078
I5
s(g18
V164
p3079
tp3080
I6
s(g12
V311
p3081
tp3082
I7
s(g442
V120
p3083
tp3084
I4
s(g108
V300
p3085
tp3086
I5
s(g116
g1211
tp3087
I11
s(g2060
g28
tp3088
I4
s(g152
V230
p3089
tp3090
I8
s(g2295
g2260
tp3091
I3
s(g79
g410
tp3092
I4
s(g608
V230
p3093
tp3094
I5
s(g70
V246
p3095
tp3096
I7
s(g27
g633
tp3097
I7
s(g706
g120
tp3098
I9
s(g499
g194
tp3099
I5
s(g706
V311
p3100
tp3101
I7
s(g70
g865
tp3102
I8
s(g19
V243
p3103
tp3104
I6
s(g39
V202
p3105
tp3106
I6
s(g12
V124
p3107
tp3108
I5
s(g1024
g271
tp3109
I4
s(g542
g28
tp3110
I6
s(g44
g858
tp3111
I7
s(g12
V416
p3112
tp3113
I4
s(g47
g28
tp3114
I7
s(g116
g746
tp3115
I5
s(g342
g173
tp3116
I6
s(g3
g25
tp3117
I8
s(g382
V230
p3118
tp3119
I4
s(g108
V176
p3120
tp3121
I8
s(g147
V159
p3122
tp3123
I6
s(g70
g795
tp3124
I3
s(g50
g291
tp3125
I5
s(g956
g1821
tp3126
I4
s(g921
g54
tp3127
I4
s(g12
V262
p3128
tp3129
I3
s(g70
g58
tp3130
I7
s(g182
g757
tp3131
I6
s(g444
g28
tp3132
I8
s(g2142
g28
tp3133
I7
s(g50
V127
p3134
tp3135
I6
s(g169
V228
p3136
tp3137
I5
s(g147
V288
p3138
tp3139
I5
s(g147
V47
p3140
tp3141
I5
s(g116
V188
p3142
tp3143
I6
s(g542
g25
tp3144
I8
s(g1781
V186
p3145
tp3146
I5
s(g2352
g100
tp3147
I5
s(g1256
V228
p3148
tp3149
I7
s(g437
V145
p3150
tp3151
I6
s(g168
g787
tp3152
I5
s(V60
p3153
g58
tp3154
I4
s(g233
V264
p3155
tp3156
I3
s(g523
V228
p3157
tp3158
I6
s(g102
g529
tp3159
I5
s(g2418
g28
tp3160
I3
s(g36
g476
tp3161
I5
s(g182
g2038
tp3162
I9
s(g12
V381
p3163
tp3164
I4
s(g389
V302
p3165
tp3166
I6
s(g2691
g100
tp3167
I4
s(g155
g1410
tp3168
I8
s(g163
V212
p3169
tp3170
I6
s(g39
V70
p3171
tp3172
I5
s(g697
g271
tp3173
I5
s(g70
V164
p3174
tp3175
I6
s(g929
g532
tp3176
I4
s(g33
g532
tp3177
I4
s(g70
V216
p3178
tp3179
I5
s(g233
V46
p3180
tp3181
I5
s(g676
V228
p3182
tp3183
I6
s(g147
V157
p3184
tp3185
I9
s(g233
V286
p3186
tp3187
I5
s(g39
V54
p3188
tp3189
I5
s(g70
V77
p3190
tp3191
I3
s(g193
g28
tp3192
I7
s(g1947
V186
p3193
tp3194
I3
s(g30
V186
p3195
tp3196
I5
s(g198
g77
tp3197
I6
s(V213
p3198
g28
tp3199
I3
s(g9
V206
p3200
tp3201
I4
s(g12
V300
p3202
tp3203
I6
s(g1217
V352
p3204
tp3205
I6
s(g298
V147
p3206
tp3207
I8
s(g389
g633
tp3208
I7
s(g163
V173
p3209
tp3210
I9
s(g1866
g633
tp3211
I3
s(g1108
V427
p3212
tp3213
I4
s(g650
V220
p3214
tp3215
I5
s(g116
V383
p3216
tp3217
I6
s(g12
V150
p3218
tp3219
I4
s(g208
V83
p3220
tp3221
I4
s(g1610
g28
tp3222
I5
s(g204
g28
tp3223
I4
s(g1759
V186
p3224
tp3225
I5
s(g116
g480
tp3226
I9
s(g70
V266
p3227
tp3228
I4
s(g9
V62
p3229
tp3230
I8
s(g12
g2287
tp3231
I6
s(g12
V256
p3232
tp3233
I3
s(g175
g3145
tp3234
I4
s(g39
V383
p3235
tp3236
I6
s(g155
V288
p3237
tp3238
I5
s(g47
V153
p3239
tp3240
I7
s(g73
g823
tp3241
I9
s(g158
V128
p3242
tp3243
I6
s(g582
V227
p3244
tp3245
I7
s(g2157
V153
p3246
tp3247
I6
s(g9
V116
p3248
tp3249
I5
s(g379
g28
tp3250
I4
s(g12
V211
p3251
tp3252
I6
s(g39
V206
p3253
tp3254
I3
s(g12
V159
p3255
tp3256
I6
s(g12
V287
p3257
tp3258
I5
s(g50
V246
p3259
tp3260
I7
s(g70
V250
p3261
tp3262
I4
s(g108
V328
p3263
tp3264
I4
s(g9
V304
p3265
tp3266
I8
s(g108
V183
p3267
tp3268
I7
s(g39
V365
p3269
tp3270
I6
s(g169
g28
tp3271
I5
s(g428
V192
p3272
tp3273
I3
s(g350
g65
tp3274
I4
s(g190
g28
tp3275
I4
s(V313
p3276
g28
tp3277
I3
s(g9
V208
p3278
tp3279
I9
s(g163
V311
p3280
tp3281
I6
s(V251
p3282
g28
tp3283
I3
s(g36
V49
p3284
tp3285
I3
s(g444
g65
tp3286
I7
s(g2293
g2495
tp3287
I5
s(g1269
g396
tp3288
I7
s(g300
g2038
tp3289
I3
s(g270
g194
tp3290
I7
s(g116
g65
tp3291
I8
s(g1092
g2710
tp3292
I5
s(g2150
g1565
tp3293
I3
s(g654
g966
tp3294
I4
s(g2071
g65
tp3295
I3
s(g102
V352
p3296
tp3297
I5
s(g158
V145
p3298
tp3299
I6
s(g73
V205
p3300
tp3301
I9
s(V360
p3302
g47
tp3303
I3
s(g70
V259
p3304
tp3305
I5
s(g2215
g2528
tp3306
I5
s(g108
V321
p3307
tp3308
I4
s(g12
g1239
tp3309
I6
s(g657
V305
p3310
tp3311
I3
s(g1350
V173
p3312
tp3313
I4
s(g21
V53
p3314
tp3315
I3
s(g136
g412
tp3316
I7
s(g671
V18
p3317
tp3318
I6
s(g364
V422
p3319
tp3320
I4
s(g1622
g28
tp3321
I4
s(g1341
g28
tp3322
I5
s(g39
V328
p3323
tp3324
I4
s(g108
V63
p3325
tp3326
I6
s(g190
g966
tp3327
I4
s(g39
V62
p3328
tp3329
I8
s(g718
g1482
tp3330
I4
s(g18
g456
tp3331
I8
s(g496
V230
p3332
tp3333
I7
s(g116
g895
tp3334
I8
s(g108
V145
p3335
tp3336
I9
s(g2791
g1469
tp3337
I3
s(g108
V154
p3338
tp3339
I6
s(g70
g2040
tp3340
I4
s(g147
V113
p3341
tp3342
I3
s(g1807
V228
p3343
tp3344
I6
s(g76
V147
p3345
tp3346
I11
s(g364
V218
p3347
tp3348
I4
s(g1039
V154
p3349
tp3350
I5
s(g392
g28
tp3351
I4
s(g47
V428
p3352
tp3353
I3
s(g389
V228
p3354
tp3355
I9
s(g654
g28
tp3356
I4
s(g70
V281
p3357
tp3358
I3
s(g298
V230
p3359
tp3360
I8
s(g163
V224
p3361
tp3362
I4
s(g929
g51
tp3363
I3
s(g1715
g362
tp3364
I5
s(g152
g65
tp3365
I7
s(g39
V323
p3366
tp3367
I5
s(g116
V17
p3368
tp3369
I4
s(g428
g100
tp3370
I5
s(g187
g865
tp3371
I4
s(g70
V370
p3372
tp3373
I5
s(g916
g21
tp3374
I3
s(g233
V172
p3375
tp3376
I5
s(g718
V389
p3377
tp3378
I4
s(g1392
V155
p3379
tp3380
I5
s(g782
g1504
tp3381
I5
s(g108
V211
p3382
tp3383
I6
s(g992
g270
tp3384
I7
s(g3296
g1057
tp3385
I6
s(g147
V226
p3386
tp3387
I4
s(g163
V186
p3388
tp3389
I10
s(g807
g615
tp3390
I5
s(g9
V229
p3391
tp3392
I11
s(g1592
g2495
tp3393
I4
s(g1342
g28
tp3394
I7
s(g890
V155
p3395
tp3396
I8
s(g2295
V147
p3397
tp3398
I4
s(g196
g194
tp3399
I4
s(g76
g208
tp3400
I7
s(g12
V365
p3401
tp3402
I6
s(g972
g938
tp3403
I8
s(g442
V425
p3404
tp3405
I3
s(g1706
g130
tp3406
I5
s(g361
g1701
tp3407
I6
s(g168
V191
p3408
tp3409
I6
s(g1757
g456
tp3410
I5
s(g196
g757
tp3411
I5
s(g1248
g28
tp3412
I5
s(g704
V205
p3413
tp3414
I4
s(g862
g182
tp3415
I8
s(g2142
g1096
tp3416
I7
s(g657
V226
p3417
tp3418
I4
s(g70
V366
p3419
tp3420
I3
s(g36
V267
p3421
tp3422
I3
s(g931
g568
tp3423
I5
s(g108
V424
p3424
tp3425
I3
s(g9
V147
p3426
tp3427
I11
s(g1866
g65
tp3428
I3
s(g12
V208
p3429
tp3430
I9
s(g697
g28
tp3431
I7
s(g465
g194
tp3432
I5
s(g201
V183
p3433
tp3434
I5
s(g1564
g65
tp3435
I5
s(g248
V229
p3436
tp3437
I7
s(g108
g931
tp3438
I5
s(g50
g219
tp3439
I7
s(g671
g342
tp3440
I6
s(g822
g19
tp3441
I5
s(g147
V228
p3442
tp3443
I9
s(g24
V147
p3444
tp3445
I7
s(g2352
g28
tp3446
I5
s(g19
g1459
tp3447
I6
s(g1273
g28
tp3448
I3
s(g442
g194
tp3449
I9
s(g50
g65
tp3450
I8
s(g50
V209
p3451
tp3452
I3
s(g2674
g28
tp3453
I4
s(g1248
g2710
tp3454
I5
s(g18
g62
tp3455
I11
s(g190
g785
tp3456
I4
s(g163
V205
p3457
tp3458
I9
s(g442
V282
p3459
tp3460
I4
s(g2293
g54
tp3461
I5
s(g442
V228
p3462
tp3463
I9
s(V446
p3464
g28
tp3465
I3
s(g39
V164
p3466
tp3467
I6
s(g795
g47
tp3468
I3
s(g2215
g445
tp3469
I5
s(g632
V229
p3470
tp3471
I5
s(g53
g28
tp3472
I5
s(g582
V426
p3473
tp3474
I6
s(g621
g28
tp3475
I5
s(g422
V238
p3476
tp3477
I6
s(g36
V413
p3478
tp3479
I4
s(g116
V420
p3480
tp3481
I4
s(g108
g1667
tp3482
I5
s(g39
V428
p3483
tp3484
I3
s(g787
g65
tp3485
I5
s(g168
g1469
tp3486
I4
s(g12
V162
p3487
tp3488
I5
s(g70
V320
p3489
tp3490
I4
s(g163
V395
p3491
tp3492
I6
s(g12
V220
p3493
tp3494
I8
s(g36
V176
p3495
tp3496
I8
s(g12
V42
p3497
tp3498
I7
s(g422
g929
tp3499
I4
s(g2243
g345
tp3500
I5
s(g152
V416
p3501
tp3502
I4
s(g108
V205
p3503
tp3504
I9
s(g218
V227
p3505
tp3506
I9
s(g50
V452
p3507
tp3508
I5
s(g119
g317
tp3509
I4
s(g19
g240
tp3510
I3
s(g36
V414
p3511
tp3512
I8
s(g76
g270
tp3513
I7
s(g601
g2099
tp3514
I6
s(g163
V166
p3515
tp3516
I4
s(g70
g615
tp3517
I9
s(g136
g2148
tp3518
I7
s(g1365
g194
tp3519
I4
s(g147
V253
p3520
tp3521
I3
s(g12
V308
p3522
tp3523
I3
s(g116
V16
p3524
tp3525
I6
s(g610
g270
tp3526
I5
s(g9
V427
p3527
tp3528
I9
s(g244
g380
tp3529
I6
s(g119
V200
p3530
tp3531
I4
s(g1199
V186
p3532
tp3533
I5
s(g590
g137
tp3534
I7
s(g1759
g362
tp3535
I5
s(g108
V70
p3536
tp3537
I5
s(g108
g1503
tp3538
I4
s(g108
V373
p3539
tp3540
I4
s(g36
g65
tp3541
I8
s(g2260
V229
p3542
tp3543
I5
s(g1050
g2712
tp3544
I3
s(g442
V145
p3545
tp3546
I9
s(g3464
V186
p3547
tp3548
I3
s(g423
g194
tp3549
I5
s(g147
V286
p3550
tp3551
I5
s(g582
g65
tp3552
I6
s(g9
g28
tp3553
I11
s(g497
V388
p3554
tp3555
I4
s(g298
V186
p3556
tp3557
I8
s(V121
p3558
g65
tp3559
I3
s(g18
g7
tp3560
I10
s(g70
V417
p3561
tp3562
I5
s(g233
V40
p3563
tp3564
I5
s(g1318
g3357
tp3565
I3
s(g42
V426
p3566
tp3567
I9
s(g347
g194
tp3568
I3
s(g2356
V229
p3569
tp3570
I4
s(g350
g1851
tp3571
I4
s(g70
V420
p3572
tp3573
I4
s(g2243
g47
tp3574
I5
s(g50
g44
tp3575
I9
s(g442
V305
p3576
tp3577
I3
s(g39
V125
p3578
tp3579
I6
s(g24
g7
tp3580
I6
s(g3227
g655
tp3581
I4
s(g601
g28
tp3582
I6
s(g9
V231
p3583
tp3584
I9
s(g784
g28
tp3585
I5
s(g2814
V187
p3586
tp3587
I5
s(g158
V136
p3588
tp3589
I6
s(g9
V282
p3590
tp3591
I4
s(g116
g1482
tp3592
I8
s(g70
V410
p3593
tp3594
I4
s(g108
V306
p3595
tp3596
I7
s(g12
g448
tp3597
I5
s(g787
V155
p3598
tp3599
I5
s(g76
g271
tp3600
I7
s(g2421
V345
p3601
tp3602
I4
s(g12
V229
p3603
tp3604
I11
s(g422
V428
p3605
tp3606
I3
s(g147
V305
p3607
tp3608
I3
s(g19
V369
p3609
tp3610
I4
s(g136
g248
tp3611
I7
s(g70
g1039
tp3612
I5
s(g218
g1733
tp3613
I9
s(g36
V437
p3614
tp3615
I6
s(g1342
g123
tp3616
I7
s(g108
V125
p3617
tp3618
I6
s(g2295
g194
tp3619
I3
s(g2500
g211
tp3620
I3
s(g2218
g438
tp3621
I5
s(g116
g334
tp3622
I8
s(g2243
g540
tp3623
I5
s(g364
V42
p3624
tp3625
I7
s(g1726
g7
tp3626
I5
s(g152
V231
p3627
tp3628
I7
s(g1014
g1185
tp3629
I4
s(g1068
V153
p3630
tp3631
I3
s(g218
g940
tp3632
I6
s(g3
g856
tp3633
I6
s(g6
V89
p3634
tp3635
I6
s(g9
V246
p3636
tp3637
I7
s(g70
V247
p3638
tp3639
I4
s(g706
g2795
tp3640
I9
s(g1014
g410
tp3641
I4
s(g39
V205
p3642
tp3643
I9
s(g39
V221
p3644
tp3645
I4
s(g193
g865
tp3646
I7
s(g9
g178
tp3647
I5
s(g12
g745
tp3648
I5
s(g218
g566
tp3649
I6
s(g168
g1482
tp3650
I8
s(g70
g846
tp3651
I5
s(g406
g28
tp3652
I6
s(g18
g2127
tp3653
I9
s(g76
g183
tp3654
I9
s(g9
V316
p3655
tp3656
I6
s(g782
V408
p3657
tp3658
I5
s(g880
g858
tp3659
I7
s(g822
g1057
tp3660
I5
s(g1199
g3272
tp3661
I3
s(g1796
g65
tp3662
I3
s(g99
g380
tp3663
I6
s(g76
V205
p3664
tp3665
I9
s(g2808
g554
tp3666
I3
s(g750
g456
tp3667
I4
s(g428
g1745
tp3668
I5
s(g437
g19
tp3669
I5
s(g497
g51
tp3670
I7
s(g497
V395
p3671
tp3672
I6
s(g1564
g271
tp3673
I5
s(g2377
g28
tp3674
I5
s(V58
p3675
g652
tp3676
I8
s(g486
g757
tp3677
I6
s(g106
g633
tp3678
I5
s(g70
g1403
tp3679
I5
s(g952
g1275
tp3680
I4
s(g422
V135
p3681
tp3682
I9
s(g172
g103
tp3683
I6
s(g594
V158
p3684
tp3685
I6
s(g437
V301
p3686
tp3687
I4
s(g12
V58
p3688
tp3689
I8
s(g12
V382
p3690
tp3691
I7
s(g2287
V222
p3692
tp3693
I3
s(g442
V376
p3694
tp3695
I6
s(g650
V224
p3696
tp3697
I4
s(g416
g65
tp3698
I4
s(g50
V211
p3699
tp3700
I5
s(g1199
g65
tp3701
I5
s(g70
V131
p3702
tp3703
I5
s(g76
V153
p3704
tp3705
I9
s(g586
g65
tp3706
I6
s(g1726
g445
tp3707
I5
s(g750
g317
tp3708
I3
s(g70
V70
p3709
tp3710
I6
s(g409
g306
tp3711
I3
s(g502
g3033
tp3712
I9
s(g158
V187
p3713
tp3714
I5
s(g2218
g1191
tp3715
I5
s(g39
V216
p3716
tp3717
I5
s(g119
g28
tp3718
I8
s(g12
V203
p3719
tp3720
I5
s(g12
V284
p3721
tp3722
I3
s(g12
g68
tp3723
I4
s(g12
V389
p3724
tp3725
I5
s(g9
V205
p3726
tp3727
I9
s(g39
V285
p3728
tp3729
I6
s(g106
V62
p3730
tp3731
I3
s(g364
V68
p3732
tp3733
I5
s(g535
g575
tp3734
I6
s(g15
g2724
tp3735
I4
s(g502
g1650
tp3736
I9
s(g208
V80
p3737
tp3738
I5
s(g82
V188
p3739
tp3740
I6
s(g163
g28
tp3741
I10
s(g1757
g340
tp3742
I6
s(g1508
g28
tp3743
I4
s(g39
V211
p3744
tp3745
I6
s(g18
g71
tp3746
I11
s(g108
g697
tp3747
I8
s(g39
V126
p3748
tp3749
I3
s(g650
V427
p3750
tp3751
I7
s(g9
V63
p3752
tp3753
I6
s(g1040
g957
tp3754
I4
s(g36
V43
p3755
tp3756
I6
s(g1749
g28
tp3757
I5
s(g39
V384
p3758
tp3759
I4
s(g76
g2669
tp3760
I7
s(g1302
V186
p3761
tp3762
I3
s(g2215
g54
tp3763
I5
s(g1706
V185
p3764
tp3765
I5
s(g361
g938
tp3766
I6
s(g85
g80
tp3767
I6
s(g70
V383
p3768
tp3769
I6
s(g961
g804
tp3770
I4
s(g706
g3089
tp3771
I9
s(V219
p3772
g28
tp3773
I3
s(g3357
V426
p3774
tp3775
I3
s(g1331
g554
tp3776
I4
s(g376
g236
tp3777
I6
s(g50
V183
p3778
tp3779
I8
s(g108
V432
p3780
tp3781
I4
s(g36
g685
tp3782
I8
s(g108
V54
p3783
tp3784
I5
s(g2808
g380
tp3785
I4
s(g376
g1761
tp3786
I5
s(g18
V149
p3787
tp3788
I6
s(g342
g103
tp3789
I6
s(g50
V201
p3790
tp3791
I5
s(g2421
g3224
tp3792
I4
s(g1736
g28
tp3793
I4
s(g163
V361
p3794
tp3795
I4
s(g389
V145
p3796
tp3797
I11
s(g175
g65
tp3798
I4
s(g650
V205
p3799
tp3800
I7
s(g2260
g669
tp3801
I5
s(g102
g1171
tp3802
I5
s(g76
V408
p3803
tp3804
I11
s(g147
V115
p3805
tp3806
I5
s(g1807
V227
p3807
tp3808
I6
s(g2352
g1981
tp3809
I5
s(g47
g956
tp3810
I6
s(g70
V258
p3811
tp3812
I4
s(g1751
V153
p3813
tp3814
I5
s(g444
g194
tp3815
I6
s(g108
V320
p3816
tp3817
I4
s(g50
V318
p3818
tp3819
I5
s(g972
g28
tp3820
I8
s(g147
V427
p3821
tp3822
I9
s(g6
V153
p3823
tp3824
I5
s(g39
V371
p3825
tp3826
I4
s(g248
g271
tp3827
I7
s(g2311
g71
tp3828
I4
s(g108
V143
p3829
tp3830
I9
s(g214
V186
p3831
tp3832
I4
s(g216
g2495
tp3833
I3
s(g108
V62
p3834
tp3835
I8
s(g444
g617
tp3836
I8
s(g39
V63
p3837
tp3838
I6
s(g9
V391
p3839
tp3840
I5
s(g18
g58
tp3841
I7
s(g685
V306
p3842
tp3843
I7
s(g1736
g380
tp3844
I4
s(g389
V184
p3845
tp3846
I7
s(g9
V392
p3847
tp3848
I7
s(g657
V229
p3849
tp3850
I7
s(g108
V155
p3851
tp3852
I8
s(g158
V408
p3853
tp3854
I6
s(g147
V112
p3855
tp3856
I5
s(g125
g362
tp3857
I4
s(g2218
g1526
tp3858
I5
s(g442
g270
tp3859
I7
s(g231
V323
p3860
tp3861
I5
s(g12
V269
p3862
tp3863
I5
s(g24
V145
p3864
tp3865
I7
s(g1150
g28
tp3866
I4
s(g39
V376
p3867
tp3868
I6
s(g267
V132
p3869
tp3870
I3
s(g39
V329
p3871
tp3872
I4
s(g9
V213
p3873
tp3874
I3
s(g12
V363
p3875
tp3876
I4
s(g1318
g848
tp3877
I4
s(g364
V46
p3878
tp3879
I5
s(g2311
g65
tp3880
I4
s(g12
g3413
tp3881
I9
s(g264
g28
tp3882
I4
s(g273
g919
tp3883
I4
s(g201
g966
tp3884
I6
s(g70
g2814
tp3885
I5
s(g47
g632
tp3886
I5
s(g172
V23
p3887
tp3888
I5
s(g36
V337
p3889
tp3890
I5
s(g635
V186
p3891
tp3892
I4
s(g70
g554
tp3893
I9
s(g116
g1565
tp3894
I11
s(g50
V70
p3895
tp3896
I6
s(g502
g554
tp3897
I9
s(g9
V154
p3898
tp3899
I6
s(g70
V399
p3900
tp3901
I5
s(g70
g28
tp3902
I11
s(g389
g3357
tp3903
I3
s(g19
V153
p3904
tp3905
I6
s(g233
V229
p3906
tp3907
I9
s(g929
g65
tp3908
I4
s(g267
V125
p3909
tp3910
I6
s(g48
g615
tp3911
I5
s(g1161
g173
tp3912
I6
s(g574
g28
tp3913
I4
s(g1592
g2998
tp3914
I4
s(g706
g617
tp3915
I9
s(g82
V155
p3916
tp3917
I8
s(g12
V202
p3918
tp3919
I7
s(g50
V161
p3920
tp3921
I5
s(g264
g345
tp3922
I3
s(g515
g396
tp3923
I5
s(g784
g1701
tp3924
I5
s(g125
V426
p3925
tp3926
I4
s(g178
g194
tp3927
I5
s(g1245
V153
p3928
tp3929
I7
s(g3153
g317
tp3930
I3
s(g39
V14
p3931
tp3932
I7
s(g76
g16
tp3933
I9
s(g168
g487
tp3934
I5
s(g9
V90
p3935
tp3936
I6
s(g108
V425
p3937
tp3938
I4
s(g70
V390
p3939
tp3940
I5
s(g1706
g28
tp3941
I5
s(g193
V186
p3942
tp3943
I7
s(g168
g1851
tp3944
I8
s(g529
V353
p3945
tp3946
I5
s(g147
V57
p3947
tp3948
I6
s(g1403
V186
p3949
tp3950
I5
s(g1365
V229
p3951
tp3952
I4
s(g12
g2718
tp3953
I4
s(g2293
g65
tp3954
I4
s(g12
g271
tp3955
I7
s(g460
g65
tp3956
I4
s(g182
g527
tp3957
I6
s(g30
g28
tp3958
I5
s(g12
V74
p3959
tp3960
I5
s(g422
V228
p3961
tp3962
I9
s(g1367
g28
tp3963
I3
s(g956
g633
tp3964
I8
s(g39
V422
p3965
tp3966
I4
s(g582
V155
p3967
tp3968
I6
s(g428
g1015
tp3969
I5
s(g147
V229
p3970
tp3971
I11
s(g18
g334
tp3972
I8
s(g468
g28
tp3973
I6
s(g116
V155
p3974
tp3975
I9
s(g442
V400
p3976
tp3977
I3
s(g12
g1248
tp3978
I5
s(g147
V306
p3979
tp3980
I7
s(g2043
g445
tp3981
I4
s(g2691
g28
tp3982
I4
s(g880
g527
tp3983
I6
s(g56
V186
p3984
tp3985
I5
s(g168
g176
tp3986
I8
s(g442
g429
tp3987
I6
s(g437
g28
tp3988
I6
s(g3
g28
tp3989
I6
s(g419
V227
p3990
tp3991
I5
s(g2560
g28
tp3992
I6
s(g12
V163
p3993
tp3994
I6
s(g70
V323
p3995
tp3996
I5
s(g12
g364
tp3997
I8
s(g3
g1526
tp3998
I8
s(g201
V426
p3999
tp4000
I6
s(g12
g527
tp4001
I6
s(g409
g1185
tp4002
I4
s(g201
g379
tp4003
I4
s(g108
V202
p4004
tp4005
I6
s(g1125
g211
tp4006
I3
s(g908
g28
tp4007
I4
s(g2410
g28
tp4008
I5
s(g198
g1410
tp4009
I8
s(g39
V128
p4010
tp4011
I9
s(g50
V397
p4012
tp4013
I4
s(g70
g566
tp4014
I6
s(g9
V14
p4015
tp4016
I6
s(g193
V147
p4017
tp4018
I7
s(g12
V113
p4019
tp4020
I3
s(g70
V154
p4021
tp4022
I6
s(g168
g306
tp4023
I8
s(g610
g412
tp4024
I6
s(g67
g28
tp4025
I4
s(g9
V426
p4026
tp4027
I9
s(g1054
g1108
tp4028
I4
s(g2465
g1226
tp4029
I4
s(g39
V153
p4030
tp4031
I9
s(g36
V408
p4032
tp4033
I8
s(g39
V173
p4034
tp4035
I9
s(g3047
V153
p4036
tp4037
I3
s(g70
V207
p4038
tp4039
I8
s(g9
g85
tp4040
I6
s(g650
V382
p4041
tp4042
I5
s(g108
g1726
tp4043
I4
s(g12
V252
p4044
tp4045
I3
s(g2465
g25
tp4046
I4
s(g168
g410
tp4047
I8
s(g422
g846
tp4048
I5
s(g70
g590
tp4049
I9
s(g706
g456
tp4050
I7
s(g12
V313
p4051
tp4052
I3
s(g82
g28
tp4053
I8
s(g2377
g268
tp4054
I5
s(g9
g621
tp4055
I5
s(g42
V427
p4056
tp4057
I9
s(g172
V352
p4058
tp4059
I6
s(g30
g83
tp4060
I3
s(g586
g194
tp4061
I6
s(g168
g723
tp4062
I8
s(g201
V384
p4063
tp4064
I4
s(g1528
g187
tp4065
I3
s(g50
V154
p4066
tp4067
I6
s(g2260
V230
p4068
tp4069
I5
s(g218
V269
p4070
tp4071
I5
s(g496
V227
p4072
tp4073
I7
s(g19
V186
p4074
tp4075
I6
s(g1644
V186
p4076
tp4077
I3
s(g2691
g65
tp4078
I4
s(g502
g499
tp4079
I5
s(g437
g490
tp4080
I6
s(g352
V41
p4081
tp4082
I3
s(g155
V40
p4083
tp4084
I5
s(g523
g219
tp4085
I5
s(g233
V48
p4086
tp4087
I5
s(g3
g793
tp4088
I4
s(V319
p4089
g28
tp4090
I4
s(g697
V427
p4091
tp4092
I7
s(g155
V155
p4093
tp4094
I8
s(g36
V96
p4095
tp4096
I4
s(g163
V87
p4097
tp4098
I5
s(g158
V363
p4099
tp4100
I4
s(g444
g123
tp4101
I8
s(g201
V383
p4102
tp4103
I5
s(g2071
g28
tp4104
I3
s(g185
g271
tp4105
I3
s(g201
g382
tp4106
I3
s(g19
g1057
tp4107
I6
s(g12
V228
p4108
tp4109
I9
s(g586
g28
tp4110
I6
s(g222
V186
p4111
tp4112
I8
s(g136
g1130
tp4113
I7
s(g496
g65
tp4114
I6
s(g2358
g2078
tp4115
I5
s(g70
V55
p4116
tp4117
I4
s(g76
g187
tp4118
I6
s(g444
V186
p4119
tp4120
I8
s(g608
V186
p4121
tp4122
I5
s(g39
V227
p4123
tp4124
I9
s(g497
V155
p4125
tp4126
I7
s(g270
g1751
tp4127
I3
s(g168
g1883
tp4128
I8
s(g685
g28
tp4129
I8
s(g9
g2691
tp4130
I4
s(g496
g7
tp4131
I7
s(g689
g28
tp4132
I3
s(g76
g34
tp4133
I9
s(g267
V62
p4134
tp4135
I8
s(g12
g67
tp4136
I4
s(g289
V153
p4137
tp4138
I6
s(g116
V184
p4139
tp4140
I7
s(g1014
g7
tp4141
I4
s(g73
V304
p4142
tp4143
I8
s(g18
g279
tp4144
I9
s(g39
V318
p4145
tp4146
I5
s(g1318
g25
tp4147
I4
ssS'graph'
p4148
ccopy_reg
_reconstructor
p4149
(cnetworkx.classes.graph
Graph
p4150
c__builtin__
object
p4151
Ntp4152
Rp4153
(dp4154
S'node'
p4155
(dp4156
g2808
(dp4157
sV0
p4158
(dp4159
sg1759
(dp4160
sg784
(dp4161
sg201
(dp4162
sg1736
(dp4163
sg379
(dp4164
sg273
(dp4165
sg2421
(dp4166
sg1318
(dp4167
sg168
(dp4168
sg278
(dp4169
sg316
(dp4170
sg350
(dp4171
sg1508
(dp4172
sg193
(dp4173
sg1781
(dp4174
sg1199
(dp4175
sg1105
(dp4176
sg921
(dp4177
sg152
(dp4178
sg706
(dp4179
sg119
(dp4180
sg2418
(dp4181
sg361
(dp4182
sg1715
(dp4183
sg64
(dp4184
sg2410
(dp4185
sg428
(dp4186
sg158
(dp4187
sg79
(dp4188
sg409
(dp4189
sg136
(dp4190
sg610
(dp4191
sg1125
(dp4192
sg303
(dp4193
sg478
(dp4194
sg1014
(dp4195
sg125
(dp4196
sg1569
(dp4197
sg244
(dp4198
sg1528
(dp4199
sg437
(dp4200
sg2352
(dp4201
sg1331
(dp4202
sg2218
(dp4203
sg1644
(dp4204
sg3464
(dp4205
sg382
(dp4206
sg782
(dp4207
sg2311
(dp4208
sg465
(dp4209
sg1136
(dp4210
sg1350
(dp4211
sg2071
(dp4212
sg141
(dp4213
sg560
(dp4214
sg36
(dp4215
sg416
(dp4216
sg175
(dp4217
sg496
(dp4218
sg336
(dp4219
sg24
(dp4220
sg1891
(dp4221
sg9
(dp4222
sg460
(dp4223
sg1245
(dp4224
sg108
(dp4225
sg122
(dp4226
sV34
p4227
(dp4228
sg579
(dp4229
sg99
(dp4230
sg621
(dp4231
sg1050
(dp4232
sg1769
(dp4233
sg444
(dp4234
sg2295
(dp4235
sg2500
(dp4236
sg1728
(dp4237
sg1132
(dp4238
sg952
(dp4239
sg214
(dp4240
sg2377
(dp4241
sg542
(dp4242
sg2215
(dp4243
sg931
(dp4244
sg1302
(dp4245
sg608
(dp4246
sg798
(dp4247
sg2358
(dp4248
sg190
(dp4249
sg422
(dp4250
sg929
(dp4251
sg298
(dp4252
sg325
(dp4253
sg6
(dp4254
sg222
(dp4255
sV92
p4256
(dp4257
sg1947
(dp4258
sg916
(dp4259
sg2260
(dp4260
sg33
(dp4261
sg3
(dp4262
sg1273
(dp4263
sg185
(dp4264
sg1503
(dp4265
sg739
(dp4266
sg2465
(dp4267
sg76
(dp4268
sg502
(dp4269
sV232
p4270
(dp4271
sg442
(dp4272
sg586
(dp4273
sg389
(dp4274
sg70
(dp4275
sg654
(dp4276
sg18
(dp4277
sg1636
(dp4278
sg267
(dp4279
sg264
(dp4280
sg1341
(dp4281
sg1838
(dp4282
sg231
(dp4283
sg39
(dp4284
sg105
(dp4285
sg106
(dp4286
sg499
(dp4287
sg187
(dp4288
sg972
(dp4289
sg73
(dp4290
sg404
(dp4291
sg1365
(dp4292
sV138
p4293
(dp4294
sg169
(dp4295
sg419
(dp4296
sg787
(dp4297
sg15
(dp4298
sg671
(dp4299
sg172
(dp4300
sg342
(dp4301
sg102
(dp4302
sg704
(dp4303
sg1796
(dp4304
sg855
(dp4305
sg1866
(dp4306
sg1088
(dp4307
sg1403
(dp4308
sV403
p4309
(dp4310
sg625
(dp4311
sg1979
(dp4312
sg312
(dp4313
sg2691
(dp4314
sg116
(dp4315
sg1606
(dp4316
sg2482
(dp4317
sg2814
(dp4318
sg1726
(dp4319
sg1592
(dp4320
sV372
p4321
(dp4322
sg216
(dp4323
sg2293
(dp4324
sV377
p4325
(dp4326
sg468
(dp4327
sg1767
(dp4328
sg497
(dp4329
sg163
(dp4330
sg50
(dp4331
sg1032
(dp4332
sg1749
(dp4333
sg85
(dp4334
sg2043
(dp4335
sg208
(dp4336
sg811
(dp4337
sg2712
(dp4338
sg248
(dp4339
sg300
(dp4340
sg291
(dp4341
sg992
(dp4342
sg270
(dp4343
sg513
(dp4344
sg414
(dp4345
sg822
(dp4346
sg908
(dp4347
sg61
(dp4348
sg795
(dp4349
sg19
(dp4350
sg505
(dp4351
sg635
(dp4352
sg376
(dp4353
sg1989
(dp4354
sg1506
(dp4355
sg113
(dp4356
sg56
(dp4357
sV453
p4358
(dp4359
sg606
(dp4360
sg2356
(dp4361
sg91
(dp4362
sg82
(dp4363
sg2335
(dp4364
sg1005
(dp4365
sg233
(dp4366
sg1326
(dp4367
sg523
(dp4368
sg2243
(dp4369
sg30
(dp4370
sg27
(dp4371
sV180
p4372
(dp4373
sg689
(dp4374
sg12
(dp4375
sg1706
(dp4376
sg1342
(dp4377
sg697
(dp4378
sg451
(dp4379
sg329
(dp4380
sg1291
(dp4381
sg359
(dp4382
sg650
(dp4383
sg629
(dp4384
sg529
(dp4385
sg2362
(dp4386
sg2784
(dp4387
sg630
(dp4388
sg1217
(dp4389
sg1161
(dp4390
sV2025
p4391
(dp4392
sg1044
(dp4393
sg392
(dp4394
sg3816
(dp4395
sg3307
(dp4396
sg2767
(dp4397
sg2229
(dp4398
sg1622
(dp4399
sg1010
(dp4400
sg3263
(dp4401
sg2740
(dp4402
sg515
(dp4403
sg1999
(dp4404
sg1117
(dp4405
sg1269
(dp4406
sg218
(dp4407
sg1061
(dp4408
sg862
(dp4409
sg613
(dp4410
sg3451
(dp4411
sg42
(dp4412
sg1939
(dp4413
sg2060
(dp4414
sg448
(dp4415
sg2487
(dp4416
sg946
(dp4417
sg731
(dp4418
sg1367
(dp4419
sg1926
(dp4420
sg53
(dp4421
sg352
(dp4422
sg803
(dp4423
sg1152
(dp4424
sg3558
(dp4425
sg676
(dp4426
sg1196
(dp4427
sg750
(dp4428
sg2560
(dp4429
sg1943
(dp4430
sg406
(dp4431
sg590
(dp4432
sg276
(dp4433
sg155
(dp4434
sg3047
(dp4435
sg1480
(dp4436
sg745
(dp4437
sg1803
(dp4438
sg1183
(dp4439
sg490
(dp4440
sg1150
(dp4441
sg2150
(dp4442
sV419
p4443
(dp4444
sg4089
(dp4445
sg1154
(dp4446
sg3276
(dp4447
sg2718
(dp4448
sg2142
(dp4449
sg2674
(dp4450
sg718
(dp4451
sg1807
(dp4452
sg2700
(dp4453
sg2087
(dp4454
sg240
(dp4455
sg2746
(dp4456
sg1100
(dp4457
sg1820
(dp4458
sV367
p4459
(dp4460
sg1776
(dp4461
sg1757
(dp4462
sg1054
(dp4463
sg1156
(dp4464
sg3302
(dp4465
sg1108
(dp4466
sg2456
(dp4467
sg1024
(dp4468
sg1564
(dp4469
sg535
(dp4470
sg574
(dp4471
sg657
(dp4472
sg600
(dp4473
sg601
(dp4474
sg476
(dp4475
sg178
(dp4476
sg3153
(dp4477
sg47
(dp4478
sg903
(dp4479
sg204
(dp4480
sg582
(dp4481
sg364
(dp4482
sg1248
(dp4483
sg111
(dp4484
sg538
(dp4485
sg979
(dp4486
sg997
(dp4487
sg3282
(dp4488
sg2199
(dp4489
sg1056
(dp4490
sg2518
(dp4491
sg1862
(dp4492
sg1300
(dp4493
sg48
(dp4494
sg1115
(dp4495
sg1454
(dp4496
sg1173
(dp4497
sg632
(dp4498
sg289
(dp4499
sg807
(dp4500
sg1092
(dp4501
sg1459
(dp4502
sg1761
(dp4503
sg2765
(dp4504
sg961
(dp4505
sg2040
(dp4506
sg83
(dp4507
sg1171
(dp4508
sg3296
(dp4509
sg96
(dp4510
sV350
p4511
(dp4512
sg67
(dp4513
sV358
p4514
(dp4515
sg1610
(dp4516
sg211
(dp4517
sV214
p4518
(dp4519
sg685
(dp4520
sg2157
(dp4521
sg3198
(dp4522
sg1912
(dp4523
sg1987
(dp4524
sg453
(dp4525
sg3772
(dp4526
sg147
(dp4527
sg1994
(dp4528
sg846
(dp4529
sg3357
(dp4530
sg2064
(dp4531
sg665
(dp4532
sg3590
(dp4533
sg196
(dp4534
sg2480
(dp4535
sg3257
(dp4536
sg164
(dp4537
sg296
(dp4538
sg3128
(dp4539
sg1239
(dp4540
sg2583
(dp4541
sg3421
(dp4542
sg3227
(dp4543
sg1068
(dp4544
sg1724
(dp4545
sg2452
(dp4546
sg2821
(dp4547
sg58
(dp4548
sg3675
(dp4549
sg21
(dp4550
sg1039
(dp4551
sg2287
(dp4552
sg2463
(dp4553
sg68
(dp4554
sg895
(dp4555
sg1415
(dp4556
sg1552
(dp4557
sg2379
(dp4558
sg1251
(dp4559
sg2109
(dp4560
sg423
(dp4561
sg1256
(dp4562
sg3248
(dp4563
sg901
(dp4564
sg1667
(dp4565
sg3341
(dp4566
sg3520
(dp4567
sg1751
(dp4568
sg1257
(dp4569
sg771
(dp4570
sg3352
(dp4571
sg2058
(dp4572
sg3480
(dp4573
sg2881
(dp4574
sg2791
(dp4575
sg3937
(dp4576
sg3424
(dp4577
sg369
(dp4578
sg956
(dp4579
sg1232
(dp4580
sV309
p4581
(dp4582
sg2099
(dp4583
sg3686
(dp4584
sg2094
(dp4585
sg897
(dp4586
sg633
(dp4587
sg3607
(dp4588
sg3595
(dp4589
sg572
(dp4590
sg347
(dp4591
sg198
(dp4592
sg182
(dp4593
sg486
(dp4594
sg3386
(dp4595
sV225
p4596
(dp4597
sg253
(dp4598
sV223
p4599
(dp4600
sg314
(dp4601
sg1631
(dp4602
sg890
(dp4603
sg332
(dp4604
sg1392
(dp4605
sg1246
(dp4606
sg2439
(dp4607
sg1040
(dp4608
sg44
(dp4609
sg283
(dp4610
sg880
(dp4611
sg3349
(dp4612
sg594
(dp4613
sg249
(dp4614
sg2567
(dp4615
sg2988
(dp4616
sg1871
(dp4617
sg1283
(dp4618
sV398
p4619
(dp4620
sg487
(dp4621
sg1335
(dp4622
sg1574
(dp4623
sg2044
(dp4624
sg183
(dp4625
sg77
(dp4626
sg3497
(dp4627
sg527
(dp4628
sg619
(dp4629
sg1469
(dp4630
sg2183
(dp4631
ssS'edge'
p4632
(dp4633
g2808
(dp4634
g407
(dp4635
sg380
(dp4636
sg268
(dp4637
sg554
(dp4638
ssg4158
(dp4639
g4358
(dp4640
ssg1759
(dp4641
g28
(dp4642
sg966
(dp4643
sg3224
(dp4644
sg2146
(dp4645
sg362
(dp4646
ssg784
(dp4647
g28
(dp4648
sg865
(dp4649
sg1701
(dp4650
sg785
(dp4651
sg362
(dp4652
ssg201
(dp4653
g1772
(dp4654
sg472
(dp4655
sg1933
(dp4656
sg379
(dp4657
sg382
(dp4658
sg782
(dp4659
sg966
(dp4660
sg3433
(dp4661
sg4102
(dp4662
sg509
(dp4663
sg2812
(dp4664
sg4063
(dp4665
sg3999
(dp4666
sg202
(dp4667
sg1585
(dp4668
ssg1736
(dp4669
g28
(dp4670
sg380
(dp4671
sg1737
(dp4672
ssg379
(dp4673
g25
(dp4674
sg848
(dp4675
sg28
(dp4676
sg380
(dp4677
sg201
g4657
sg869
(dp4678
ssg273
(dp4679
g274
(dp4680
sg2275
(dp4681
sg919
(dp4682
sg1389
(dp4683
sg1065
(dp4684
sg306
(dp4685
ssg2421
(dp4686
g3357
(dp4687
sg279
(dp4688
sg3224
(dp4689
sg3601
(dp4690
ssg1318
(dp4691
g2078
(dp4692
sg1701
(dp4693
sg848
(dp4694
sg25
(dp4695
sg1319
(dp4696
sg3357
(dp4697
ssg168
(dp4698
g1482
(dp4699
sg410
(dp4700
sg3408
(dp4701
sg279
(dp4702
sg1389
(dp4703
sg865
(dp4704
sg1851
(dp4705
sg176
(dp4706
sg429
(dp4707
sg169
(dp4708
sg419
(dp4709
sg787
(dp4710
sg487
(dp4711
sg1574
(dp4712
sg2044
(dp4713
sg1469
(dp4714
sg28
(dp4715
sg1883
(dp4716
sg617
(dp4717
sg2620
(dp4718
sg306
(dp4719
sg723
(dp4720
ssg278
(dp4721
g362
(dp4722
sg575
(dp4723
sg633
(dp4724
sg28
(dp4725
sg1669
(dp4726
sg279
(dp4727
sg601
(dp4728
ssg316
(dp4729
g1152
(dp4730
sg28
(dp4731
sg317
(dp4732
ssg350
(dp4733
g28
(dp4734
sg2373
(dp4735
sg1851
(dp4736
sg306
(dp4737
sg65
(dp4738
ssg1508
(dp4739
g28
(dp4740
sg380
(dp4741
sg2682
(dp4742
ssg193
(dp4743
g4017
(dp4744
sg194
(dp4745
sg28
(dp4746
sg380
(dp4747
sg3942
(dp4748
sg65
(dp4749
sg279
(dp4750
sg865
(dp4751
sg617
(dp4752
sg306
(dp4753
sg723
(dp4754
ssg1781
(dp4755
g54
(dp4756
sg3145
(dp4757
sg445
(dp4758
sg28
(dp4759
ssg1199
(dp4760
g194
(dp4761
sg3272
(dp4762
sg28
(dp4763
sg3532
(dp4764
sg65
(dp4765
sg1418
(dp4766
sg1951
(dp4767
ssg1105
(dp4768
g54
(dp4769
sg1106
(dp4770
sg445
(dp4771
sg28
(dp4772
ssg921
(dp4773
g922
(dp4774
sg54
(dp4775
sg445
(dp4776
sg28
(dp4777
ssg152
(dp4778
g1713
(dp4779
sg2852
(dp4780
sg194
(dp4781
sg3501
(dp4782
sg966
(dp4783
sg153
(dp4784
sg1618
(dp4785
sg65
(dp4786
sg779
(dp4787
sg1406
(dp4788
sg2601
(dp4789
sg3089
(dp4790
sg3627
(dp4791
ssg706
(dp4792
g2795
(dp4793
sg120
(dp4794
sg1482
(dp4795
sg58
(dp4796
sg456
(dp4797
sg1096
(dp4798
sg1015
(dp4799
sg848
(dp4800
sg759
(dp4801
sg28
(dp4802
sg938
(dp4803
sg2752
(dp4804
sg279
(dp4805
sg865
(dp4806
sg317
(dp4807
sg3089
(dp4808
sg3100
(dp4809
sg617
(dp4810
ssg119
(dp4811
g120
(dp4812
sg2585
(dp4813
sg1310
(dp4814
sg2489
(dp4815
sg3530
(dp4816
sg134
(dp4817
sg2327
(dp4818
sV56
p4819
(dp4820
sg28
(dp4821
sg2782
(dp4822
sg1159
(dp4823
sg2281
(dp4824
sg317
(dp4825
sg2946
(dp4826
ssg2418
(dp4827
g28
(dp4828
sg2419
(dp4829
ssg361
(dp4830
g362
(dp4831
sg1701
(dp4832
sg28
(dp4833
sg938
(dp4834
sg2191
(dp4835
sg279
(dp4836
ssg1715
(dp4837
g279
(dp4838
sg340
(dp4839
sg317
(dp4840
sg2191
(dp4841
sg362
(dp4842
ssg64
(dp4843
g2961
(dp4844
sg2591
(dp4845
sg28
(dp4846
sg1930
(dp4847
sg65
(dp4848
sV298
p4849
g4701
sg763
(dp4850
sg714
(dp4851
sg832
(dp4852
ssg2410
(dp4853
g28
(dp4854
sg7
(dp4855
sg380
(dp4856
sg3033
(dp4857
ssg428
(dp4858
g1745
(dp4859
sg1015
(dp4860
sg3272
(dp4861
sg100
(dp4862
sg50
(dp4863
sg532
(dp4864
sg513
(dp4865
sg80
(dp4866
sg429
(dp4867
ssg158
(dp4868
V293
p4869
g4762
sg2222
(dp4870
sg1438
(dp4871
sg3298
(dp4872
sg2521
(dp4873
sg1213
(dp4874
sg3588
(dp4875
sV193
p4876
g4861
sg159
(dp4877
sg3242
(dp4878
sg693
(dp4879
sg242
(dp4880
sg3713
(dp4881
sg912
(dp4882
sg2608
(dp4883
sg2610
(dp4884
sg3853
(dp4885
sg4099
(dp4886
sg2028
(dp4887
sg1977
(dp4888
ssg79
(dp4889
g80
(dp4890
sg7
(dp4891
sg1185
(dp4892
sg410
(dp4893
sg1065
(dp4894
sg306
(dp4895
ssg409
(dp4896
g7
(dp4897
sg1185
(dp4898
sg410
(dp4899
sg306
(dp4900
ssg136
(dp4901
g270
(dp4902
sg28
(dp4903
sg1669
(dp4904
sg1130
(dp4905
sg1187
(dp4906
sg248
(dp4907
sg2148
(dp4908
sg412
(dp4909
sg137
(dp4910
ssg610
(dp4911
g2337
(dp4912
sg28
(dp4913
sg25
(dp4914
sg611
(dp4915
sg1187
(dp4916
sg248
(dp4917
sg2148
(dp4918
sg412
(dp4919
sg270
(dp4920
ssg1125
(dp4921
g211
(dp4922
sg2836
(dp4923
sg2463
(dp4924
sg1126
(dp4925
ssg303
(dp4926
g304
(dp4927
sg380
(dp4928
sg268
(dp4929
sg554
(dp4930
ssg478
(dp4931
g410
(dp4932
sg7
(dp4933
sg1185
(dp4934
sg2724
(dp4935
sg1855
(dp4936
sg306
(dp4937
ssg1014
(dp4938
g1015
(dp4939
sg1185
(dp4940
sg410
(dp4941
sg7
(dp4942
sg306
(dp4943
ssg125
(dp4944
g362
(dp4945
sg1807
(dp4946
sg126
(dp4947
sg1751
(dp4948
sV427
p4949
(dp4950
sg3925
(dp4951
ssg1569
(dp4952
g28
(dp4953
sg2976
(dp4954
ssg244
(dp4955
g1275
(dp4956
sg194
(dp4957
sg28
(dp4958
sg380
(dp4959
sg201
g4656
sg966
(dp4960
sg601
(dp4961
sg1831
(dp4962
sg2129
(dp4963
ssg1528
(dp4964
g28
(dp4965
sg187
(dp4966
sg1342
(dp4967
ssg437
(dp4968
g2056
(dp4969
sg3150
(dp4970
sg897
(dp4971
sg3686
(dp4972
sg2218
(dp4973
sg1526
(dp4974
sg28
(dp4975
sg438
(dp4976
sg19
(dp4977
sg490
(dp4978
sg1191
(dp4979
ssg2352
(dp4980
g28
(dp4981
sg100
(dp4982
sg380
(dp4983
sg1981
(dp4984
ssg1331
(dp4985
g25
(dp4986
sg1701
(dp4987
sg554
(dp4988
sg848
(dp4989
ssg2218
(dp4990
g437
g4973
sg28
(dp4991
sg1191
(dp4992
sg438
(dp4993
sg1526
(dp4994
ssg1644
(dp4995
g28
(dp4996
sg4076
(dp4997
ssg3464
(dp4998
g28
(dp4999
sg3547
(dp5000
ssg382
(dp5001
g966
(dp5002
sg201
g4658
sg194
(dp5003
sg3118
(dp5004
sg383
(dp5005
ssg782
(dp5006
g25
(dp5007
sg1504
(dp5008
sg201
g4659
sg848
(dp5009
sg3657
(dp5010
ssg2311
(dp5011
g848
(dp5012
sg25
(dp5013
sg47
(dp5014
sg65
(dp5015
sg422
(dp5016
sg71
(dp5017
ssg465
(dp5018
g71
(dp5019
sg1015
(dp5020
sg466
(dp5021
sg65
(dp5022
sg194
(dp5023
ssg1136
(dp5024
g1137
(dp5025
sg2249
(dp5026
sg306
(dp5027
sg65
(dp5028
ssg1350
(dp5029
g2318
(dp5030
sg3312
(dp5031
sg306
(dp5032
sg65
(dp5033
ssg2071
(dp5034
g28
(dp5035
sV90
p5036
(dp5037
sg2072
(dp5038
sg65
(dp5039
ssg141
(dp5040
V278
p5041
g4947
sg142
(dp5042
sg7
(dp5043
sg1964
(dp5044
sg362
(dp5045
ssg560
(dp5046
g1106
(dp5047
sg561
(dp5048
sg306
(dp5049
sg65
(dp5050
ssg36
(dp5051
g1663
(dp5052
sg685
(dp5053
sg402
(dp5054
sg1885
(dp5055
sg3889
(dp5056
sg2154
(dp5057
sg718
(dp5058
sV270
p5059
g4895
sV271
p5060
g4900
sg65
(dp5061
sV276
p5062
g4937
sV277
p5063
g4943
sg3495
(dp5064
sg2416
(dp5065
sg1805
(dp5066
sg476
(dp5067
sg3284
(dp5068
sV106
p5069
g5049
sg988
(dp5070
sg323
(dp5071
sg3755
(dp5072
sg1676
(dp5073
sg1818
(dp5074
sg1975
(dp5075
sg2984
(dp5076
sg2467
(dp5077
sV343
p5078
g4685
sg1204
(dp5079
sg2855
(dp5080
sg1829
(dp5081
sg4032
(dp5082
sg2498
(dp5083
sg716
(dp5084
sg683
(dp5085
sg777
(dp5086
sg755
(dp5087
sg3068
(dp5088
sg1445
(dp5089
sg1564
(dp5090
sg3421
(dp5091
sg1724
(dp5092
sg922
(dp5093
sV103
p5094
g5032
sV102
p5095
g5027
sg2277
(dp5096
sg4095
(dp5097
sg2512
(dp5098
sg444
(dp5099
sg1582
(dp5100
sg1337
(dp5101
sg37
(dp5102
sg3511
(dp5103
sg3614
(dp5104
sV295
p5105
g4753
sV298
p5106
g4719
sg3478
(dp5107
sg1616
(dp5108
sg1769
(dp5109
sg474
(dp5110
sV297
p5111
g4737
sg968
(dp5112
ssg416
(dp5113
g417
(dp5114
sg1576
(dp5115
sg306
g5096
sg65
(dp5116
ssg175
(dp5117
g3145
(dp5118
sg176
(dp5119
sg306
g5073
sg65
(dp5120
ssg496
(dp5121
g194
(dp5122
sg497
(dp5123
sg7
(dp5124
sg2403
(dp5125
sg65
(dp5126
sg1376
(dp5127
sg1935
(dp5128
sg4072
(dp5129
sg3332
(dp5130
ssg336
(dp5131
V28
p5132
(dp5133
sg7
(dp5134
sg999
(dp5135
sg337
(dp5136
sg2213
(dp5137
sg687
(dp5138
sg396
(dp5139
ssg24
(dp5140
g3444
(dp5141
sg1740
(dp5142
sg3864
(dp5143
sg108
(dp5144
sg25
(dp5145
sg7
(dp5146
sV403
p5147
(dp5148
sg1515
(dp5149
sg238
(dp5150
sg4459
(dp5151
sg1478
(dp5152
sg1166
(dp5153
ssg1891
(dp5154
g28
(dp5155
sg1892
(dp5156
sg306
g5101
ssg9
(dp5157
g1810
(dp5158
sg482
(dp5159
sg1142
(dp5160
sV198
p5161
g4799
sV197
p5162
g4832
sg642
(dp5163
sg4518
(dp5164
sV193
p5165
g4860
sg661
(dp5166
sg332
(dp5167
sg3229
(dp5168
sg3248
(dp5169
sg1032
(dp5170
sg2819
(dp5171
sg85
(dp5172
sg1014
g4939
sg178
(dp5173
sg3021
(dp5174
sg3583
(dp5175
sg523
(dp5176
sg3873
(dp5177
sg2972
(dp5178
sg300
(dp5179
sg183
(dp5180
sg936
(dp5181
sg28
(dp5182
sg1314
(dp5183
sV347
p5184
g4650
sg2450
(dp5185
sg1263
(dp5186
sg2641
(dp5187
sg3590
(dp5188
sV349
p5189
g4693
sg2691
(dp5190
sg809
(dp5191
sg2871
(dp5192
sg3426
(dp5193
sg1554
(dp5194
sg3726
(dp5195
sg255
(dp5196
sg2686
(dp5197
sg3200
(dp5198
sg3278
(dp5199
sV441
p5200
g4987
sg3265
(dp5201
sg3655
(dp5202
sg296
(dp5203
sV109
p5204
g5020
sg3391
(dp5205
sg2002
(dp5206
sg374
(dp5207
sg700
(dp5208
sg132
(dp5209
sg1534
(dp5210
sg2452
(dp5211
sg253
(dp5212
sg4599
(dp5213
sg10
(dp5214
sg650
(dp5215
sg4015
(dp5216
sg3847
(dp5217
sg1139
(dp5218
sg3839
(dp5219
sg1076
(dp5220
sg1794
(dp5221
sg3752
(dp5222
sg3527
(dp5223
sg621
(dp5224
sg2284
(dp5225
sg3898
(dp5226
sg4026
(dp5227
sg3935
(dp5228
sg3636
(dp5229
ssg460
(dp5230
g461
(dp5231
sg7
(dp5232
sg291
(dp5233
sg65
(dp5234
ssg1245
(dp5235
g1600
(dp5236
sg3928
(dp5237
sg2756
(dp5238
sg77
(dp5239
sg848
(dp5240
sg25
(dp5241
sg1246
(dp5242
sg1689
(dp5243
ssg108
(dp5244
g3382
(dp5245
sg25
(dp5246
sg2827
(dp5247
sg1088
(dp5248
sg440
(dp5249
sg846
(dp5250
sV342
p5251
g4675
sg542
(dp5252
sg2834
(dp5253
sV349
p5254
g4694
sg2225
(dp5255
sg109
(dp5256
sg2746
(dp5257
sg676
(dp5258
sg3617
(dp5259
sg1945
(dp5260
sg2774
(dp5261
sg2238
(dp5262
sg3783
(dp5263
sg3834
(dp5264
sg983
(dp5265
sg1480
(dp5266
sg1394
(dp5267
sg695
(dp5268
sg1726
(dp5269
sg3539
(dp5270
sg644
(dp5271
sg1154
(dp5272
sV198
p5273
g4800
sg2142
(dp5274
sg1169
(dp5275
sg1667
(dp5276
sg1121
(dp5277
sg513
(dp5278
sg319
(dp5279
sg521
(dp5280
sg3937
(dp5281
sg3424
(dp5282
sg2869
(dp5283
sg3085
(dp5284
sV441
p5285
g4989
sg1398
(dp5286
sg3595
(dp5287
sV444
p5288
g5009
sg2016
(dp5289
sg822
(dp5290
sV108
p5291
g5012
sg2541
(dp5292
sg24
g5144
sV37
p5293
g5240
sg3780
(dp5294
sg1728
(dp5295
sg1132
(dp5296
sg1202
(dp5297
sg1396
(dp5298
sg931
(dp5299
sg798
(dp5300
sg1164
(dp5301
sg1063
(dp5302
sg903
(dp5303
sg204
(dp5304
sg372
(dp5305
sg3120
(dp5306
sg2335
(dp5307
sg3267
(dp5308
sg1580
(dp5309
sg308
(dp5310
sg697
(dp5311
sg4004
(dp5312
sg484
(dp5313
sg222
(dp5314
sg2832
(dp5315
sg1092
(dp5316
sg2362
(dp5317
sg1081
(dp5318
sg1792
(dp5319
sg3851
(dp5320
sg3338
(dp5321
sg1642
(dp5322
sg1034
(dp5323
sg2503
(dp5324
sg1503
(dp5325
sg739
(dp5326
sg2465
(dp5327
sg1851
(dp5328
sg1280
(dp5329
sg3325
(dp5330
sg194
(dp5331
sg1044
(dp5332
sg392
(dp5333
sg3816
(dp5334
sg3307
(dp5335
sg2767
(dp5336
sg2229
(dp5337
sg1622
(dp5338
sg1010
(dp5339
sg3263
(dp5340
sg2740
(dp5341
sg1078
(dp5342
sg425
(dp5343
sg3335
(dp5344
sg3503
(dp5345
sg3829
(dp5346
sg613
(dp5347
sg577
(dp5348
sg231
(dp5349
sg3536
(dp5350
ssg122
(dp5351
g2298
(dp5352
sg2786
(dp5353
sg123
(dp5354
sg398
(dp5355
sV422
p5356
(dp5357
sg180
(dp5358
ssg4227
(dp5359
g28
(dp5360
sg4619
(dp5361
sg357
(dp5362
sg1108
(dp5363
ssg579
(dp5364
g25
(dp5365
sg28
(dp5366
sg2233
(dp5367
sg580
(dp5368
ssg99
(dp5369
g1526
(dp5370
sg28
(dp5371
sg100
(dp5372
sg380
(dp5373
sg1981
(dp5374
sg1090
(dp5375
sg723
(dp5376
ssg621
(dp5377
g1015
g5224
sg28
(dp5378
sg2508
(dp5379
sg622
(dp5380
sg65
(dp5381
sg194
(dp5382
ssg1050
(dp5383
g274
(dp5384
sg966
(dp5385
sg622
(dp5386
sg865
(dp5387
sg2712
(dp5388
sg306
g5104
sg617
(dp5389
ssg1769
(dp5390
g54
(dp5391
sg34
(dp5392
sg306
g5109
ssg444
(dp5393
g54
(dp5394
sg123
(dp5395
sg194
(dp5396
sg28
(dp5397
sg519
(dp5398
sg4119
(dp5399
sg65
(dp5400
sg966
(dp5401
sg865
(dp5402
sg317
(dp5403
sg445
(dp5404
sg306
g5099
sg429
(dp5405
sg617
(dp5406
ssg2295
(dp5407
g25
(dp5408
sg3397
(dp5409
sg194
(dp5410
sg848
g5294
sg2260
(dp5411
ssg2500
(dp5412
g211
(dp5413
sg2463
(dp5414
sV274
p5415
g4925
ssg1728
(dp5416
g25
(dp5417
sg2408
(dp5418
sg848
g5295
ssg1132
(dp5419
g359
(dp5420
sg422
(dp5421
sg848
g5296
sg28
(dp5422
sg1669
(dp5423
sg25
(dp5424
sg791
(dp5425
sV340
p5426
g4668
sg1650
(dp5427
ssg952
(dp5428
g28
(dp5429
sg1275
(dp5430
sg380
(dp5431
ssg214
(dp5432
g28
(dp5433
sg380
(dp5434
sg3831
(dp5435
ssg2377
(dp5436
g2078
(dp5437
sg848
g5297
sg25
(dp5438
sg380
(dp5439
sg268
(dp5440
sg28
(dp5441
ssg542
(dp5442
g1312
(dp5443
sg848
g5252
sg1526
(dp5444
sg28
(dp5445
sg869
(dp5446
sg19
(dp5447
sg25
(dp5448
sg2074
(dp5449
sg2919
(dp5450
ssg2215
(dp5451
g1574
(dp5452
sg54
(dp5453
sg445
(dp5454
sg306
g5056
sg2528
(dp5455
ssg931
(dp5456
g25
(dp5457
sg28
(dp5458
sg869
(dp5459
sg848
g5299
sg568
(dp5460
ssg1302
(dp5461
g28
(dp5462
sV177
p5463
(dp5464
sg3761
(dp5465
ssg608
(dp5466
g28
(dp5467
sg3093
(dp5468
sg4372
(dp5469
sg4121
(dp5470
sg1026
(dp5471
ssg798
(dp5472
g25
(dp5473
sg799
(dp5474
sg848
g5300
ssg2358
(dp5475
g25
(dp5476
sg2078
(dp5477
sg268
(dp5478
sg848
g5301
ssg190
(dp5479
g28
(dp5480
sg191
(dp5481
sg785
(dp5482
sg966
(dp5483
sV348
p5484
g4690
ssg422
(dp5485
g615
(dp5486
sg1228
(dp5487
sg570
(dp5488
sg966
(dp5489
sg470
(dp5490
sg3476
(dp5491
sg65
(dp5492
sg3681
(dp5493
sg423
(dp5494
sg1012
(dp5495
sg3605
(dp5496
sg240
(dp5497
sg540
(dp5498
sg846
(dp5499
sg964
(dp5500
sg2247
(dp5501
sg1501
(dp5502
sg70
(dp5503
sg2101
(dp5504
sg929
(dp5505
sV108
p5506
g5016
sV168
p5507
(dp5508
sg2189
(dp5509
sg914
(dp5510
sg3961
(dp5511
sg1699
(dp5512
sg976
(dp5513
sg566
(dp5514
sg2287
(dp5515
sV431
p5516
g5421
ssg929
(dp5517
g51
(dp5518
sg532
(dp5519
sg65
(dp5520
sg100
(dp5521
sg422
g5505
ssg298
(dp5522
g3206
(dp5523
sg654
(dp5524
sg2114
(dp5525
sg194
(dp5526
sg28
(dp5527
sg3556
(dp5528
sg2793
(dp5529
sg2345
(dp5530
sg3359
(dp5531
sg2883
(dp5532
ssg325
(dp5533
g71
(dp5534
sg28
(dp5535
sg655
(dp5536
ssg6
(dp5537
g3823
(dp5538
sg1788
(dp5539
sg1015
g5228
sg1796
(dp5540
sg7
(dp5541
sg3634
(dp5542
sg1598
(dp5543
sg1639
(dp5544
sV100
p5545
g5037
ssg222
(dp5546
g580
(dp5547
sV443
p5548
g4979
sg223
(dp5549
sV440
p5550
g4992
sg848
g5314
sg1526
(dp5551
sg25
(dp5552
sg4111
(dp5553
sg3026
(dp5554
sV439
p5555
g5375
sg548
(dp5556
sV334
p5557
g5450
ssg4256
(dp5558
g279
(dp5559
sg28
(dp5560
ssg1947
(dp5561
g28
(dp5562
sg966
(dp5563
sg3193
(dp5564
ssg916
(dp5565
g917
(dp5566
sg21
(dp5567
sg966
(dp5568
sg1144
(dp5569
sg28
(dp5570
sg1178
(dp5571
ssg2260
(dp5572
g28
(dp5573
sg669
(dp5574
sg4068
(dp5575
sg966
(dp5576
sg2714
(dp5577
sg3542
(dp5578
sg2295
g5411
ssg33
(dp5579
g34
(dp5580
sg7
(dp5581
sg532
(dp5582
sg306
g5097
sg194
(dp5583
ssg3
(dp5584
g793
(dp5585
sg4
(dp5586
sg568
(dp5587
sV334
p5588
g5449
sg28
(dp5589
sg848
g5324
sg1526
(dp5590
sg1434
(dp5591
sg1176
(dp5592
sg1211
(dp5593
sg856
(dp5594
sg25
(dp5595
sg422
g5491
sg1119
(dp5596
sg2919
g5556
sg1967
(dp5597
sg566
(dp5598
ssg1273
(dp5599
g28
(dp5600
sg796
(dp5601
sg65
(dp5602
ssg185
(dp5603
g271
(dp5604
sg130
(dp5605
sg942
(dp5606
ssg1503
(dp5607
g25
(dp5608
sg1504
(dp5609
sg848
g5325
ssg739
(dp5610
g25
(dp5611
sg1226
(dp5612
sg848
g5326
ssg2465
(dp5613
g25
(dp5614
sg1226
(dp5615
sg848
g5327
ssg76
(dp5616
g3704
(dp5617
sg150
(dp5618
sV198
p5619
g4808
sg757
(dp5620
sg2627
(dp5621
sg608
g5468
sg152
g4790
sg966
(dp5622
sg91
(dp5623
sV272
p5624
g4908
sV273
p5625
g4918
sg901
(dp5626
sg606
(dp5627
sg2684
(dp5628
sg208
(dp5629
sg811
(dp5630
sg1283
(dp5631
sg248
(dp5632
sg34
(dp5633
sg3072
(dp5634
sg412
(dp5635
sg270
(dp5636
sg28
(dp5637
sg141
g5042
sg183
(dp5638
sg77
(dp5639
sg586
(dp5640
sg347
(dp5641
sg294
(dp5642
sV36
p5643
g5328
sg1928
(dp5644
sg16
(dp5645
sg3803
(dp5646
sg2795
(dp5647
sg3345
(dp5648
sV449
p5649
g4963
sg435
(dp5650
sg3664
(dp5651
sg554
(dp5652
sg862
(dp5653
sg2266
(dp5654
sV445
p5655
g5004
sV98
p5656
g5531
sg2669
(dp5657
sg271
(dp5658
sg3030
(dp5659
sg350
g4736
sg71
(dp5660
sg345
(dp5661
sg289
(dp5662
sg2260
g5575
sg1410
(dp5663
sg496
g5130
sg336
g5138
sg1015
g5174
sg7
(dp5664
sg1084
(dp5665
sV298
p5666
g4705
sg187
(dp5667
ssg502
(dp5668
V199
p5669
g4791
sg1763
(dp5670
sg1086
(dp5671
sg279
(dp5672
sg7
(dp5673
sg499
(dp5674
sg503
(dp5675
sg65
(dp5676
sg615
(dp5677
sg194
(dp5678
sg28
(dp5679
sg3033
(dp5680
sg396
(dp5681
sg1650
(dp5682
sg2795
(dp5683
sg2331
(dp5684
sg1329
(dp5685
sg554
(dp5686
sg1673
(dp5687
sg407
(dp5688
sg566
(dp5689
sg317
(dp5690
sg1015
g5175
sg848
g5329
sg50
(dp5691
ssg4270
(dp5692
g586
(dp5693
ssg442
(dp5694
g2365
(dp5695
sg3272
g4888
sg2109
(dp5696
sg470
(dp5697
sg7
(dp5698
sg1656
(dp5699
sV234
p5700
g5606
sg248
(dp5701
sg2148
g5644
sg429
(dp5702
sg270
(dp5703
sg194
(dp5704
sg28
(dp5705
sg1873
(dp5706
sg1308
(dp5707
sg2485
(dp5708
sg1743
(dp5709
sg2881
(dp5710
sg3459
(dp5711
sg3404
(dp5712
sg2125
(dp5713
sg2474
(dp5714
sg3545
(dp5715
sg1463
(dp5716
sg3976
(dp5717
sg3576
(dp5718
sg130
(dp5719
sg3083
(dp5720
sg1358
(dp5721
sg3040
(dp5722
sg657
(dp5723
sg3462
(dp5724
sg1846
(dp5725
sg1259
(dp5726
sV223
p5727
(dp5728
sg1513
(dp5729
sg412
(dp5730
sV424
p5731
(dp5732
sg2769
(dp5733
sg1519
(dp5734
sg3694
(dp5735
ssg586
(dp5736
g194
(dp5737
sg28
(dp5738
sg1084
(dp5739
sg65
(dp5740
sg1722
(dp5741
sg2329
(dp5742
sg1648
(dp5743
sV230
p5744
g5640
sV232
p5745
g5693
ssg389
(dp5746
g1096
(dp5747
sV198
p5748
g4793
sg615
(dp5749
sg39
(dp5750
sg2168
(dp5751
sg938
(dp5752
sg390
(dp5753
sg865
(dp5754
sg2649
(dp5755
sV231
p5756
g5683
sV230
p5757
g5647
sg28
(dp5758
sg1028
(dp5759
sg62
(dp5760
sg3845
(dp5761
sg422
g5502
sg3357
(dp5762
sg617
(dp5763
sg2758
(dp5764
sg3796
(dp5765
sg359
(dp5766
sg3165
(dp5767
sg633
(dp5768
sg985
(dp5769
sg2710
(dp5770
sg3354
(dp5771
sg2738
(dp5772
sg306
g5083
sg317
(dp5773
sg1701
g5192
sg848
g5342
ssg70
(dp5774
g3178
(dp5775
sg1096
(dp5776
sg1482
(dp5777
sg860
(dp5778
sg39
(dp5779
sg105
(dp5780
sg3702
(dp5781
sg2643
(dp5782
sg2127
(dp5783
sg1530
(dp5784
sg2050
(dp5785
sg28
(dp5786
sV345
p5787
g5481
sV346
p5788
g4646
sg1403
(dp5789
sg846
(dp5790
sg2899
(dp5791
sg3357
(dp5792
sg729
(dp5793
sV349
p5794
g4692
sg1457
(dp5795
sg71
(dp5796
sg246
(dp5797
sg3075
(dp5798
sg3227
(dp5799
sg1943
(dp5800
sg2842
(dp5801
sg590
(dp5802
sg58
(dp5803
sg456
(dp5804
sg4116
(dp5805
sg1039
(dp5806
sg895
(dp5807
sg1415
(dp5808
sg54
(dp5809
sg3561
(dp5810
sg3593
(dp5811
sV298
p5812
g4718
sV299
p5813
g4722
sg2814
(dp5814
sg3372
(dp5815
sV295
p5816
g4744
sg1709
(dp5817
sg468
(dp5818
sg1556
(dp5819
sg5669
g4779
sV198
p5820
g4794
sV195
p5821
g4812
sV197
p5822
g4831
sV196
p5823
g4842
sg3272
g4870
sg1767
(dp5824
sg7
(dp5825
sg938
(dp5826
sg1130
(dp5827
sg3900
(dp5828
sg1959
(dp5829
sg3261
(dp5830
sg554
(dp5831
sV94
p5832
g5566
sg771
(dp5833
sg550
(dp5834
sg3419
(dp5835
sg3572
(dp5836
sg1717
(dp5837
sg2543
(dp5838
sg727
(dp5839
sV449
p5840
g4956
sg741
(dp5841
sg2526
(dp5842
sg437
g4969
sg2166
(dp5843
sg633
(dp5844
sg130
(dp5845
sV444
p5846
g5008
sg1603
(dp5847
sg3638
(dp5848
sg3095
(dp5849
sg795
(dp5850
sg19
(dp5851
sg2026
(dp5852
sg3065
(dp5853
sg306
g5055
sg827
(dp5854
sV33
p5855
g5141
sg1701
g5193
sg1245
g5236
sg108
g5343
sg122
g5352
sV445
p5856
g5005
sg3768
(dp5857
sV438
p5858
g5368
sV432
p5859
g5409
sV430
p5860
g5418
sV339
p5861
g5430
sV335
p5862
g5437
sV334
p5863
g5443
sV336
p5864
g5460
sV333
p5865
g5474
sV332
p5866
g5477
sg3811
(dp5867
sg2379
(dp5868
sg390
(dp5869
sg865
(dp5870
sg2588
(dp5871
sg2031
(dp5872
sg1495
(dp5873
sV101
p5874
g5045
sg888
(dp5875
sg18
(dp5876
sg1989
(dp5877
sg2434
(dp5878
sV347
p5879
g4652
sg2211
(dp5880
sg422
g5503
sg2132
(dp5881
sV273
p5882
g4912
sg334
(dp5883
sg5656
g5523
sg2092
(dp5884
sg1491
(dp5885
sg3174
(dp5886
sV93
p5887
g5547
sg2381
(dp5888
sg646
(dp5889
sg566
(dp5890
sg357
(dp5891
sg3939
(dp5892
sg2439
(dp5893
sg1834
(dp5894
sg652
(dp5895
sg597
(dp5896
sg663
(dp5897
sg4021
(dp5898
sg615
(dp5899
sg1798
(dp5900
sV278
p5901
g4945
sV238
p5902
g5587
sV235
p5903
g5609
sV236
p5904
g5612
sV237
p5905
g5615
sg3089
g5648
sV231
p5906
g5684
sV233
p5907
g5714
sg1540
(dp5908
sg3304
(dp5909
sg77
(dp5910
sg604
(dp5911
sg3995
(dp5912
sg3489
(dp5913
sg2938
(dp5914
sg2963
(dp5915
sg2447
(dp5916
sg2906
(dp5917
sg2375
(dp5918
sV146
p5919
g5764
sg2458
(dp5920
sg1269
(dp5921
sg1322
(dp5922
sg679
(dp5923
sg4038
(dp5924
sg42
(dp5925
sg2255
(dp5926
sg3190
(dp5927
sg1499
(dp5928
sg1543
(dp5929
sg3709
(dp5930
sg2560
(dp5931
sg2040
(dp5932
sg2291
(dp5933
sg1685
(dp5934
sV350
p5935
(dp5936
sg4514
(dp5937
ssg654
(dp5938
g28
(dp5939
sg298
g5524
sg540
(dp5940
sg966
(dp5941
sg655
(dp5942
ssg18
(dp5943
g652
(dp5944
sg1482
(dp5945
sg5669
g4780
sg615
(dp5946
sg3272
g4872
sg279
(dp5947
sg3079
(dp5948
sg895
(dp5949
sg938
(dp5950
sg2643
(dp5951
sg2127
(dp5952
sg865
(dp5953
sg480
(dp5954
sg5907
g5715
sg3089
g5650
sg77
(dp5955
sg28
(dp5956
sg62
(dp5957
sg422
g5504
sg617
(dp5958
sV146
p5959
g5765
sg70
g5876
sg71
(dp5960
sg554
(dp5961
sg437
g4970
sg334
(dp5962
sg130
(dp5963
sg3787
(dp5964
sg5656
g5525
sg19
(dp5965
sg2710
(dp5966
sg1733
(dp5967
sg306
g5085
sg566
(dp5968
sg58
(dp5969
sg456
(dp5970
sg357
(dp5971
sg5855
g5143
sg1039
(dp5972
sg1701
g5181
sg1245
g5238
sg108
g5344
sg122
g5353
sg940
(dp5973
sg7
(dp5974
ssg1636
(dp5975
g194
(dp5976
sg2266
(dp5977
ssg267
(dp5978
g1610
(dp5979
sg1912
(dp5980
sg25
(dp5981
sg3869
(dp5982
sg4134
(dp5983
sV275
p5984
g4930
sg404
(dp5985
sV230
p5986
g5652
sV231
p5987
g5686
sg194
(dp5988
sV344
p5989
g4638
sg268
(dp5990
sg1671
(dp5991
sV147
p5992
g5831
sV145
p5993
g5961
sg2007
(dp5994
sg1331
g4988
sg494
(dp5995
sg3909
(dp5996
sg1304
(dp5997
sg406
(dp5998
sg2209
(dp5999
sg1348
(dp6000
sg1701
g5218
sg848
g5346
sg708
(dp6001
ssg264
(dp6002
g28
(dp6003
sg7
(dp6004
sg345
(dp6005
sg265
(dp6006
sg194
(dp6007
ssg1341
(dp6008
g1636
g5977
sg1342
(dp6009
sg194
(dp6010
sg28
(dp6011
sg2024
(dp6012
sg2413
(dp6013
sV230
p6014
g5654
ssg1838
(dp6015
g28
(dp6016
sg2303
(dp6017
ssg231
(dp6018
g917
g5926
sV145
p6019
g5964
sg1423
(dp6020
sV443
p6021
g4974
sg721
(dp6022
sV440
p6023
g4994
sg848
g5349
sg25
(dp6024
sg3860
(dp6025
sg1017
(dp6026
sg2803
(dp6027
sg2924
(dp6028
sV439
p6029
g5370
sg28
(dp6030
sV238
p6031
g5590
sV93
p6032
g5551
sg2443
(dp6033
sV334
p6034
g5444
sg173
(dp6035
ssg39
(dp6036
g3716
(dp6037
sg944
(dp6038
sg3744
(dp6039
sg3466
(dp6040
sg1983
(dp6041
sg1908
(dp6042
sg1230
(dp6043
sV345
p6044
g5483
sg743
(dp6045
sg1382
(dp6046
sV340
p6047
g4660
sg846
(dp6048
sV342
p6049
g4674
sV334
p6050
g5448
sg2689
(dp6051
sV348
p6052
g4688
sV349
p6053
g4695
sg2510
(dp6054
sg3024
(dp6055
sg1661
(dp6056
sg1888
(dp6057
sg3578
(dp6058
sg3748
(dp6059
sg4010
(dp6060
sg2048
(dp6061
sg3269
(dp6062
sg1572
(dp6063
sg2180
(dp6064
sg3188
(dp6065
sg3328
(dp6066
sg2138
(dp6067
sg1215
(dp6068
sg1293
(dp6069
sg2472
(dp6070
sg2991
(dp6071
sg1019
(dp6072
sV298
p6073
g4702
sg1333
(dp6074
sg3825
(dp6075
sg400
(dp6076
sg1048
(dp6077
sg193
g4750
sg2959
(dp6078
sg4443
(dp6079
sg3867
(dp6080
sg4145
(dp6081
sV199
p6082
g4783
sV198
p6083
g4805
sg1999
(dp6084
sg361
g4836
sg1715
g4838
sg2173
(dp6085
sg1634
(dp6086
sg1278
(dp6087
sg327
(dp6088
sg3483
(dp6089
sg240
(dp6090
sg513
(dp6091
sg2742
(dp6092
sg3965
(dp6093
sg552
(dp6094
sg2094
(dp6095
sg1790
(dp6096
sg2401
(dp6097
sV449
p6098
g4960
sg885
(dp6099
sV441
p6100
g4986
sg2663
(dp6101
sV445
p6102
g5002
sV444
p6103
g5007
sg767
(dp6104
sg1400
(dp6105
sV108
p6106
g5013
sg3235
(dp6107
sg3758
(dp6108
sg229
(dp6109
sg990
(dp6110
sg1589
(dp6111
sg3043
(dp6112
sg2161
(dp6113
sV33
p6114
g5145
sV37
p6115
g5241
sV36
p6116
g5246
sg61
(dp6117
sg579
g5365
sV437
p6118
g5385
sV299
p6119
g4727
sV432
p6120
g5408
sV430
p6121
g5417
sV431
p6122
g5424
sV335
p6123
g5438
sg563
(dp6124
sV336
p6125
g5457
sV333
p6126
g5473
sV332
p6127
g5476
sg2245
(dp6128
sg206
(dp6129
sg906
(dp6130
sg1679
(dp6131
sg2279
(dp6132
sg1594
(dp6133
sg2454
(dp6134
sg2974
(dp6135
sg4034
(dp6136
sg2944
(dp6137
sV346
p6138
g4643
sV145
p6139
g5947
sg2605
(dp6140
sg689
(dp6141
sg88
(dp6142
sg1467
(dp6143
sg2062
(dp6144
sg2581
(dp6145
sg281
(dp6146
sg954
(dp6147
sg3644
(dp6148
sg422
g5489
sg517
(dp6149
sg871
(dp6150
sg4123
(dp6151
sV93
p6152
g5552
sg4256
g5559
sV95
p6153
g5563
sV94
p6154
g5568
sV97
p6155
g5576
sg40
(dp6156
sg1128
(dp6157
sg1720
(dp6158
sg3931
(dp6159
sg3728
(dp6160
sg258
(dp6161
sV273
p6162
g4914
sg4030
(dp6163
sg674
(dp6164
sg1316
(dp6165
sg1878
(dp6166
sg2492
(dp6167
sg2424
(dp6168
sg2942
(dp6169
sV238
p6170
g5595
sV235
p6171
g5608
sV236
p6172
g5611
sV237
p6173
g5614
sV230
p6174
g5622
sV231
p6175
g5672
sg3837
(dp6176
sg2810
(dp6177
sg3366
(dp6178
sg2514
(dp6179
sg463
(dp6180
sg1111
(dp6181
sg1704
(dp6182
sg2316
(dp6183
sg2848
(dp6184
sg3323
(dp6185
sg3871
(dp6186
sV146
p6187
g5750
sV147
p6188
g5779
sV144
p6189
g5941
sg3105
(dp6190
sg3642
(dp6191
sV143
p6192
g5981
sg834
(dp6193
sg3253
(dp6194
sg2850
(dp6195
sV149
p6196
g6024
sg876
(dp6197
sg946
(dp6198
sg3171
(dp6199
sV435
p6200
g5401
sg2661
(dp6201
sg227
(dp6202
ssg105
(dp6203
g28
(dp6204
sV147
p6205
g5780
sg106
(dp6206
sg2795
g5751
sg554
g5982
ssg106
(dp6207
g362
g5781
sg633
(dp6208
sV60
p6209
(dp6210
sV132
p6211
g6206
sg3730
(dp6212
sg73
(dp6213
sg2895
(dp6214
sg2185
(dp6215
sg511
(dp6216
ssg499
(dp6217
g2135
(dp6218
sg194
(dp6219
sg1030
(dp6220
sg28
(dp6221
sg500
(dp6222
sV231
p6223
g5674
ssg187
(dp6224
V448
p6225
g4966
sV141
p6226
g6012
sg1701
g5225
sg28
(dp6227
sg188
(dp6228
sg2667
(dp6229
sg865
(dp6230
sg1365
(dp6231
sV230
p6232
g5667
ssg972
(dp6233
V147
p6234
g5782
sV145
p6235
g5951
sg1701
g5171
sg633
(dp6236
sg848
g5247
sg3272
g4875
sg28
(dp6237
sg1189
(dp6238
sg938
(dp6239
sg2750
(dp6240
sg25
g6041
sg2272
(dp6241
sg1897
(dp6242
sg973
(dp6243
ssg73
(dp6244
g823
(dp6245
sg279
g6042
sg106
g6213
sg938
(dp6246
sg28
(dp6247
sg774
(dp6248
sg691
(dp6249
sg422
g5493
sg5426
g4664
sg1924
(dp6250
sV147
p6251
g5783
sV145
p6252
g5952
sg3300
(dp6253
sg970
(dp6254
sg4142
(dp6255
sg2979
(dp6256
sg74
(dp6257
sg1971
(dp6258
sg1899
(dp6259
sg359
(dp6260
sg2441
(dp6261
sg2477
(dp6262
sg1620
(dp6263
sg1701
g5220
sg995
(dp6264
ssg404
(dp6265
g2337
g5784
sg554
g5985
sg137
(dp6266
ssg1365
(dp6267
g187
g6231
sg194
(dp6268
sV230
p6269
g5634
sg3951
(dp6270
ssg4293
(dp6271
V218
p6272
(dp6273
ssg169
(dp6274
g1413
(dp6275
sg28
(dp6276
sg2528
(dp6277
sg625
(dp6278
sV298
p6279
g4708
sg3136
(dp6280
sg2565
(dp6281
sg65
(dp6282
ssg419
(dp6283
g4581
(dp6284
sg420
(dp6285
sg28
(dp6286
sg2874
(dp6287
sg65
(dp6288
sV298
p6289
g4709
sg1295
(dp6290
sg3990
(dp6291
ssg787
(dp6292
g3598
(dp6293
sg28
(dp6294
sg1473
(dp6295
sg65
(dp6296
sV298
p6297
g4710
sg788
(dp6298
sg1306
(dp6299
sg2064
(dp6300
ssg15
(dp6301
g28
(dp6302
sg194
(dp6303
sg2724
(dp6304
sg65
(dp6305
sg16
(dp6306
ssg671
(dp6307
g3317
(dp6308
sg672
(dp6309
sg1261
(dp6310
sg342
(dp6311
sg173
(dp6312
ssg172
(dp6313
g173
(dp6314
sg3887
(dp6315
sg681
(dp6316
sg103
(dp6317
sg2706
(dp6318
sg4058
(dp6319
ssg342
(dp6320
V20
p6321
g6311
sg173
(dp6322
sg103
(dp6323
sg1567
(dp6324
sg343
(dp6325
sg1003
(dp6326
sg803
(dp6327
ssg102
(dp6328
g529
(dp6329
sg173
(dp6330
sg103
(dp6331
sg1171
(dp6332
sg3296
(dp6333
sV21
p6334
g6315
ssg704
(dp6335
g28
(dp6336
sg194
(dp6337
sg336
g5133
sg3413
(dp6338
sg65
(dp6339
ssg1796
(dp6340
g28
(dp6341
sg6
g5540
sg1892
(dp6342
sg65
(dp6343
ssg855
(dp6344
g362
g5873
sg7
(dp6345
sg633
(dp6346
sg856
(dp6347
sV135
p6348
g6248
ssg1866
(dp6349
g362
g5875
sg1239
(dp6350
sg633
(dp6351
sg65
(dp6352
sg823
(dp6353
ssg1088
(dp6354
g279
g6045
sg848
g5248
sg2710
(dp6355
ssg1403
(dp6356
g25
g6046
sg70
g5789
sg3949
(dp6357
sg848
g5249
sg28
(dp6358
ssg4309
(dp6359
g5855
g5148
sV390
p6360
(dp6361
ssg625
(dp6362
g169
g6278
sg54
(dp6363
sg445
(dp6364
sg306
g5076
sg1473
(dp6365
ssg1979
(dp6366
g54
(dp6367
sg445
(dp6368
sg306
g5077
sg487
(dp6369
ssg312
(dp6370
g28
(dp6371
sg271
(dp6372
sV233
p6373
g5717
ssg2691
(dp6374
g25
g6054
sg1015
g5190
sg848
g5255
sg28
(dp6375
sg100
(dp6376
sg2191
(dp6377
sg65
(dp6378
sg334
(dp6379
sg306
g5081
ssg116
(dp6380
g1096
(dp6381
sg652
(dp6382
sg1482
(dp6383
sg3974
(dp6384
sg1248
(dp6385
sg669
(dp6386
sV195
p6387
g4826
sg601
(dp6388
sg3272
g4885
sg39
g6055
sg47
(dp6389
sg895
(dp6390
sg940
(dp6391
sg65
(dp6392
sg2127
g6250
sg1130
(dp6393
sg865
(dp6394
sg480
(dp6395
sV231
p6396
g5682
sV435
p6397
g5406
sV198
p6398
g4810
sg1427
(dp6399
sg1536
(dp6400
sg3089
g5646
sg194
(dp6401
sg7
(dp6402
sg916
g5571
sg28
(dp6403
sg815
(dp6404
sg240
(dp6405
sg1211
(dp6406
sg4139
(dp6407
sg422
g5501
sg1761
(dp6408
sg201
g4655
sg3142
(dp6409
sg2395
(dp6410
sV146
p6411
g5763
sV147
p6412
g5795
sg1565
(dp6413
sV145
p6414
g5958
sg554
g5991
sg575
(dp6415
sg117
(dp6416
sg2917
(dp6417
sg334
(dp6418
sg2643
g6243
sg130
(dp6419
sV444
p6420
g5010
sg298
g5532
sg2669
(dp6421
sg3216
(dp6422
sg2258
(dp6423
sg3480
(dp6424
sg1733
(dp6425
sg431
(dp6426
sg3056
(dp6427
sg306
g5082
sg2487
(dp6428
sg566
(dp6429
sg359
(dp6430
sg1113
(dp6431
sg58
(dp6432
sg456
(dp6433
sg3368
(dp6434
sg3524
(dp6435
sg5855
g5152
sg507
(dp6436
sg1701
g5191
sg1245
g5243
sg848
g5256
sg122
g5358
sg746
(dp6437
sg1084
(dp6438
sV298
p6439
g4717
sV437
p6440
g5389
sV295
p6441
g4752
sg357
(dp6442
sV431
p6443
g5427
ssg1606
(dp6444
g796
(dp6445
sg19
(dp6446
sg4
(dp6447
ssg2482
(dp6448
g796
(dp6449
sg19
(dp6450
sg2483
(dp6451
ssg2814
(dp6452
g6412
g5814
sg1108
(dp6453
sg848
g5268
sg3272
g4883
sg25
g6075
sg3586
(dp6454
sg28
(dp6455
sg4321
(dp6456
sg942
g5734
ssg1726
(dp6457
V147
p6458
g5815
sg848
g5269
sg54
(dp6459
sg7
(dp6460
sg25
g6076
sg445
(dp6461
sg306
g5108
ssg1592
(dp6462
g25
g6077
sg28
(dp6463
sg2495
(dp6464
sg848
g5270
sg2998
(dp6465
ssg4321
(dp6466
V371
p6467
g6456
sg1173
(dp6468
sV186
p6469
(dp6470
ssg216
(dp6471
g28
(dp6472
sg2495
(dp6473
ssg2293
(dp6474
V147
p6475
g5817
sg194
(dp6476
sg54
(dp6477
sg47
(dp6478
sg2495
(dp6479
sg65
(dp6480
sg445
(dp6481
ssg4325
(dp6482
g2483
(dp6483
ssg468
(dp6484
g6412
g5818
sg51
(dp6485
sg554
g6001
sg848
g5271
sg25
g6080
sg100
(dp6486
sg268
(dp6487
sg2643
g6242
sg2127
g6264
sg28
(dp6488
sg942
g5735
sg271
(dp6489
sV293
p6490
g4767
sg429
(dp6491
sg357
(dp6492
ssg1767
(dp6493
g28
(dp6494
sV147
p6495
g5824
ssg497
(dp6496
g496
g5123
sg1745
(dp6497
sg1015
g5217
sg51
(dp6498
sg28
(dp6499
sg7
(dp6500
sg1185
(dp6501
sg1883
(dp6502
sg3671
(dp6503
sV343
p6504
g4681
sg3554
(dp6505
sg4125
(dp6506
sg306
g5100
sg761
(dp6507
ssg163
(dp6508
g2121
(dp6509
sg3169
(dp6510
sg1763
(dp6511
sV407
p6512
g6345
sg2672
(dp6513
sV409
p6514
g6376
sV408
p6515
g6402
sg1068
(dp6516
sg1052
(dp6517
sg588
(dp6518
sg1242
(dp6519
sg1209
(dp6520
sV56
p6521
(dp6522
sg2539
(dp6523
sg3047
(dp6524
sg1918
(dp6525
sV370
p6526
g6460
sV376
p6527
g6486
sg5669
g4784
sg3280
(dp6528
sV190
p6529
g4855
sV193
p6530
g4862
sV270
p6531
g4891
sg409
g4897
sg1392
(dp6532
sg2046
(dp6533
sg1801
(dp6534
sg3491
(dp6535
sV277
p6536
g4942
sg1181
(dp6537
sg4097
(dp6538
sg1324
(dp6539
sg2058
(dp6540
sV422
p6541
(dp6542
sg385
(dp6543
sg2603
(dp6544
sg3794
(dp6545
sV442
p6546
g4982
sg2354
(dp6547
sg1654
(dp6548
sg1510
(dp6549
sg1612
(dp6550
sg1008
(dp6551
sg2734
(dp6552
sV101
p6553
g5043
sV39
p6554
g5124
sV38
p6555
g5134
sV33
p6556
g5146
sV30
p6557
g5232
sV439
p6558
g5372
sg2754
(dp6559
sg2639
(dp6560
sg950
(dp6561
sg3209
(dp6562
sg2117
(dp6563
sg28
(dp6564
sg3388
(dp6565
sg433
(dp6566
sg2575
(dp6567
sg2748
(dp6568
sV99
p6569
g5521
sg2993
(dp6570
sg1098
(dp6571
sg1695
(dp6572
sg2175
(dp6573
sV90
p6574
g5541
sg3515
(dp6575
sg3361
(dp6576
sg33
g5581
sg1697
(dp6577
sV392
p6578
g6500
sg3006
(dp6579
sg164
(dp6580
sg1558
(dp6581
sg260
(dp6582
sg478
g4933
sg1224
(dp6583
sV230
p6584
g5664
sV231
p6585
g5673
sV233
p6586
g5698
sg225
(dp6587
sg45
(dp6588
sV147
p6589
g5825
sg1973
(dp6590
sV145
p6591
g5974
sg3457
(dp6592
sg264
g6004
sg3050
(dp6593
ssg50
(dp6594
g139
(dp6595
sg1482
(dp6596
sg3699
(dp6597
sV136
p6598
g6239
sV135
p6599
g6246
sV90
p6600
g5542
sg28
(dp6601
sV341
p6602
g4671
sV342
p6603
g4677
sV408
p6604
g6438
sg852
(dp6605
sg2035
(dp6606
sg3134
(dp6607
sg873
(dp6608
sV294
p6609
g4741
sV295
p6610
g4747
sV146
p6611
g5752
sg394
(dp6612
sg3818
(dp6613
sV198
p6614
g4803
sg6387
g4822
sV197
p6615
g4834
sg1692
(dp6616
sg428
g4863
sV270
p6617
g4892
sV271
p6618
g4898
sg7
g6533
sg2892
(dp6619
sg4012
(dp6620
sV275
p6621
g4928
sV276
p6622
g4934
sg1871
(dp6623
sg1074
(dp6624
sg291
(dp6625
sg1895
(dp6626
sg1848
(dp6627
sg1266
(dp6628
sV449
p6629
g4959
sg145
(dp6630
sV442
p6631
g4983
sg2205
(dp6632
sg2736
(dp6633
sg546
(dp6634
sg3259
(dp6635
sg2393
(dp6636
sg1701
g5221
sV439
p6637
g5373
sV436
p6638
g5379
sV435
p6639
g5398
sV339
p6640
g5431
sV338
p6641
g5434
sV335
p6642
g5439
sg1823
(dp6643
sg3507
(dp6644
sg65
(dp6645
sg219
(dp6646
sV392
p6647
g6501
sV344
p6648
g4636
sg3778
(dp6649
sg2771
(dp6650
sg2270
(dp6651
sg1094
(dp6652
sg2021
(dp6653
sV190
p6654
g4856
sg1869
(dp6655
sg2469
(dp6656
sg2262
(dp6657
sg1454
(dp6658
sg3920
(dp6659
sg2523
(dp6660
sg1906
(dp6661
sg51
(dp6662
sg1754
(dp6663
sg2952
(dp6664
sg544
(dp6665
sg44
(dp6666
sg274
(dp6667
sg4066
(dp6668
sg3054
(dp6669
sV277
p6670
g4940
sV230
p6671
g5665
sg502
g5691
sV233
p6672
g5699
sg194
(dp6673
sg586
g5739
sg2313
(dp6674
sg3790
(dp6675
sV147
p6676
g5826
sg2816
(dp6677
sV145
p6678
g5950
sg218
(dp6679
sg1765
(dp6680
sg3451
(dp6681
sg2903
(dp6682
sg3895
(dp6683
ssg1032
(dp6684
g1701
g5170
sg380
g6620
sg1329
(dp6685
ssg1749
(dp6686
g54
(dp6687
sg2698
(dp6688
sg445
(dp6689
sg28
(dp6690
ssg85
(dp6691
g825
(dp6692
sg86
(dp6693
sg1015
g5172
sg919
(dp6694
sg2275
g6503
sg7
g6535
sg2724
(dp6695
sV298
p6696
g4703
sV343
p6697
g4683
sg80
(dp6698
sg2622
(dp6699
ssg2043
(dp6700
g54
(dp6701
sg2044
(dp6702
sg445
(dp6703
sg306
g5057
ssg208
(dp6704
g2195
(dp6705
sV147
p6706
g5827
sg1627
(dp6707
sg981
(dp6708
sg838
(dp6709
sg194
(dp6710
sg28
(dp6711
sV272
p6712
g4905
sV273
p6713
g4915
sg209
(dp6714
sg271
(dp6715
sV408
p6716
g6393
sg3220
(dp6717
sg3737
(dp6718
sg287
(dp6719
sV230
p6720
g5629
sg2177
(dp6721
sg725
(dp6722
ssg811
(dp6723
g28
(dp6724
sg611
g6717
sg194
(dp6725
sg2148
g5630
sg271
(dp6726
ssg2712
(dp6727
g25
g6088
sg1050
g5388
sg334
(dp6728
sg848
g5277
sg2620
g5828
ssg248
(dp6729
g249
(dp6730
sg194
(dp6731
sg28
(dp6732
sg136
g4907
sg610
g4917
sg1271
(dp6733
sg271
(dp6734
sg3436
(dp6735
sg611
g6719
sV230
p6736
g5632
sg412
(dp6737
sg442
g5701
ssg300
(dp6738
g2038
(dp6739
sg1015
g5179
sV89
p6740
g6624
sg65
(dp6741
sg301
(dp6742
sg925
(dp6743
ssg291
(dp6744
g292
(dp6745
sg2322
(dp6746
sV30
p6747
g5233
sV214
p6748
(dp6749
sg448
(dp6750
sV89
p6751
g6625
sg65
(dp6752
sg7
g6538
ssg992
(dp6753
V233
p6754
g5730
sg194
(dp6755
sg28
(dp6756
sV272
p6757
g4909
sV273
p6758
g4919
sg993
(dp6759
sg271
(dp6760
sg1441
(dp6761
sg611
g6721
sV81
p6762
g6737
sV230
p6763
g5635
sg270
(dp6764
ssg270
(dp6765
V230
p6766
g5636
sg194
(dp6767
sV272
p6768
g4902
sg28
(dp6769
sg7
g6539
sV273
p6770
g4920
sg2545
(dp6771
sg271
(dp6772
sg638
(dp6773
sg1751
(dp6774
sg992
g6764
sV233
p6775
g5703
ssg513
(dp6776
g848
g5278
sV193
p6777
g4865
sg25
g6091
sg47
(dp6778
sg1211
(dp6779
sg19
(dp6780
sg1443
(dp6781
sg71
(dp6782
sg2557
(dp6783
sg2241
(dp6784
sg65
(dp6785
ssg414
(dp6786
g2331
g5854
sg1701
g5214
sg848
g5289
sg25
g6104
sg47
(dp6787
sg938
g6633
sV238
p6788
g5591
sg19
(dp6789
sg2081
(dp6790
sg796
(dp6791
sg1425
(dp6792
ssg822
(dp6793
g823
(dp6794
sg1057
(dp6795
sg7
g6549
sg848
g5290
sg25
g6105
sg1176
(dp6796
sg1665
(dp6797
sg19
(dp6798
ssg908
(dp6799
g28
(dp6800
sV147
p6801
g5848
sg909
(dp6802
ssg61
(dp6803
g2795
g5769
sg279
g6117
sg362
g5849
sg1701
g5229
sg28
(dp6804
sg938
g6635
sg62
(dp6805
sg65
(dp6806
ssg795
(dp6807
g70
g5850
sg796
(dp6808
sg47
(dp6809
ssg19
(dp6810
g3904
(dp6811
sg1057
(dp6812
sV334
p6813
g5447
sV238
p6814
g5594
sg1056
(dp6815
sg793
(dp6816
sV407
p6817
g6347
sg240
(dp6818
sg4074
(dp6819
sg513
g6780
sg3609
(dp6820
sg801
(dp6821
sV147
p6822
g5851
sV145
p6823
g5965
sV443
p6824
g4977
sV245
p6825
g6789
sV244
p6826
g6798
sg3103
(dp6827
sg1387
(dp6828
sg867
(dp6829
sg1459
(dp6830
sg1880
(dp6831
sg1606
g6446
sg2482
g6450
sg712
(dp6832
sg1815
(dp6833
sg1532
(dp6834
ssg505
(dp6835
g70
g5852
sg47
(dp6836
sg422
g5510
sg635
(dp6837
sV379
p6838
g6447
sV378
p6839
g6451
sg19
g6827
sg1211
(dp6840
sg846
(dp6841
sg28
(dp6842
sV238
p6843
g5586
sg566
(dp6844
sg1434
g6790
sg4325
g6483
sg65
(dp6845
ssg635
(dp6846
g1547
(dp6847
sg3891
(dp6848
sV243
p6849
g6837
sg636
(dp6850
ssg376
(dp6851
g377
(dp6852
sg1596
(dp6853
sg2207
(dp6854
sg2726
(dp6855
sg236
(dp6856
sg1176
(dp6857
sg1578
(dp6858
sg19
g6829
sV179
p6859
(dp6860
sg1761
(dp6861
sg1146
(dp6862
sg617
g6427
ssg1989
(dp6863
g6205
g5877
sg554
g5999
sg848
g5292
sg3272
g4877
sg25
g6112
sg2127
g6259
ssg1506
(dp6864
g28
(dp6865
sg340
(dp6866
sg6387
g4817
ssg113
(dp6867
V147
p6868
g5791
sg848
g5298
sg28
(dp6869
sg380
g6643
sg114
(dp6870
sg856
g6831
sg25
g6124
sg601
(dp6871
ssg56
(dp6872
g28
(dp6873
sg380
g6644
sg3984
(dp6874
sV231
p6875
g5671
ssg4358
(dp6876
g4391
(dp6877
sg130
(dp6878
sg4158
g4640
ssg606
(dp6879
g28
(dp6880
sV230
p6881
g5627
sV249
p6882
g6860
ssg2356
(dp6883
V182
p6884
(dp6885
sg194
(dp6886
sV230
p6887
g5621
sg3569
(dp6888
ssg91
(dp6889
V230
p6890
g5623
sg194
(dp6891
sV331
p6892
g5464
sg92
(dp6893
ssg82
(dp6894
g3916
(dp6895
sV198
p6896
g4806
sg310
(dp6897
sg279
g6134
sV137
p6898
g6230
sg236
(dp6899
sV295
p6900
g4751
sg28
(dp6901
sg784
g4649
sg62
(dp6902
sg1761
(dp6903
sg3739
(dp6904
sV408
p6905
g6394
sV146
p6906
g5754
sV147
p6907
g5870
sV145
p6908
g5953
sg1825
(dp6909
sg820
(dp6910
sg6882
g6862
sg306
g5064
sg629
(dp6911
sg31
(dp6912
sg848
g5306
sg83
(dp6913
sV298
p6914
g4704
sV437
p6915
g5387
sV435
p6916
g5402
ssg2335
(dp6917
g25
g6135
sg54
(dp6918
sg848
g5307
sg362
g5871
ssg1005
(dp6919
g1257
(dp6920
sg54
(dp6921
sg757
(dp6922
sV107
p6923
g5065
sg28
(dp6924
sg7
g6561
sg2495
(dp6925
sg317
(dp6926
sg1065
(dp6927
sg1731
(dp6928
sg352
(dp6929
ssg233
(dp6930
g2577
(dp6931
sg2562
(dp6932
sg2010
(dp6933
sg757
(dp6934
sV337
p6935
g5454
sV191
p6936
g4852
sg25
g6136
sg2732
(dp6937
sg7
g6562
sV396
p6938
g6689
sV276
p6939
g4936
sV394
p6940
g6703
sV174
p6941
g6927
sV230
p6942
g5633
sg1257
(dp6943
sV435
p6944
g5404
sg627
(dp6945
sg4086
(dp6946
sg3180
(dp6947
sg1356
(dp6948
sg3010
(dp6949
sg3563
(dp6950
sg3375
(dp6951
sg285
(dp6952
sg959
(dp6953
sV96
p6954
g5580
sg458
(dp6955
sV402
p6956
g6364
sV401
p6957
g6368
sg273
g4684
sg234
(dp6958
sV105
p6959
g5119
sg1497
(dp6960
sg2572
(dp6961
sV408
p6962
g6395
sV146
p6963
g5755
sg2408
g5872
sV145
p6964
g5954
sg1449
(dp6965
sg2052
(dp6966
sg3906
(dp6967
sg3155
(dp6968
sV102
p6969
g5026
sV103
p6970
g5031
sV106
p6971
g5048
sg6923
g5066
sV104
p6972
g5115
sg352
(dp6973
sg317
(dp6974
sg2432
(dp6975
sg1072
(dp6976
sg79
g4894
sg2532
(dp6977
sV298
p6978
g4706
sg2530
(dp6979
sV370
p6980
g6461
sV434
p6981
g5392
sg3186
(dp6982
sV292
p6983
g4758
sV374
p6984
g6481
sV290
p6985
g4771
sV291
p6986
g4776
ssg1326
(dp6987
g1902
(dp6988
sg194
(dp6989
sg54
(dp6990
sg1327
(dp6991
sV174
p6992
g6928
sg445
g6951
sg1410
(dp6993
ssg523
(dp6994
g2348
(dp6995
sg2320
(dp6996
sg1015
g5176
sg219
(dp6997
sV193
p6998
g4867
sV376
p6999
g6491
sg524
(dp7000
sg100
g6563
sg883
(dp7001
sg1489
(dp7002
sV298
p7003
g4707
sg3157
(dp7004
sg2104
(dp7005
sg1219
(dp7006
sV435
p7007
g5405
sg734
(dp7008
sV233
p7009
g5702
ssg2243
(dp7010
g47
(dp7011
sg345
(dp7012
sg540
(dp7013
sg615
(dp7014
sg422
g5495
ssg30
(dp7015
g629
(dp7016
sg31
(dp7017
sV176
p7018
g6899
sg28
(dp7019
sg83
(dp7020
sg3195
(dp7021
sV240
p7022
g6816
sg2356
g6885
sg1761
(dp7023
sV238
p7024
g5585
sg376
g6856
sg2014
(dp7025
sg617
g6399
ssg27
(dp7026
g2795
g5759
sg6801
g5878
sg1701
g5183
sg633
(dp7027
sg848
g5308
sg28
(dp7028
sg938
g6649
sg842
(dp7029
sg279
g6140
sg5426
g4661
sg194
(dp7030
sg617
g6404
ssg4372
(dp7031
g194
(dp7032
sg608
g5469
ssg689
(dp7033
g28
(dp7034
sg966
g6141
sg1211
(dp7035
ssg12
(dp7036
g340
(dp7037
sg1482
(dp7038
sg1763
(dp7039
sg3251
(dp7040
sg2119
(dp7041
sg279
g6142
sg1115
(dp7042
sg499
g6222
sg187
g6228
sg2127
g6249
sV24
p7043
g6277
sV25
p7044
g6287
sV26
p7045
g6295
sV27
p7046
g6304
sg1947
g5564
sV29
p7047
g6342
sg1513
(dp7048
sg147
(dp7049
sg1994
(dp7050
sV346
p7051
g4644
sV347
p7052
g4651
sg5426
g4663
sg846
(dp7053
sV342
p7054
g4678
sV334
p7055
g5446
sg1836
(dp7056
sg1102
(dp7057
sg3993
(dp7058
sg196
(dp7059
sg3721
(dp7060
sg3257
(dp7061
sV408
p7062
g6406
sg1152
(dp7063
sg3128
(dp7064
sg1239
(dp7065
sg2799
(dp7066
sg3107
(dp7067
sg836
(dp7068
sg2076
(dp7069
sg276
(dp7070
sg3862
(dp7071
sg3688
(dp7072
sg2287
(dp7073
sg68
(dp7074
sg1552
(dp7075
sg54
(dp7076
sV378
p7077
g6449
sg3112
(dp7078
sg745
(dp7079
sg168
g4716
sV299
p7080
g4726
sV145
p7081
g5957
sV373
p7082
g6464
sg4321
g6470
sg1781
g4757
sV293
p7083
g4764
sg1105
g4770
sV376
p7084
g6487
sV146
p7085
g5760
sg1465
(dp7086
sg2054
(dp7087
sg5669
g4785
sV198
p7088
g4804
sV147
p7089
g5880
sg6387
g4824
sg2718
(dp7090
sV197
p7091
g4835
sg2674
(dp7092
sg2635
(dp7093
sg2410
g4857
sV193
p7094
g4864
sg166
(dp7095
sg1289
(dp7096
sV392
p7097
g6502
sg219
(dp7098
sg50
g6650
sg503
(dp7099
sg1749
g6688
sg4019
(dp7100
sg979
(dp7101
sg611
g6714
sV279
p7102
g4954
sg4051
(dp7103
sg248
g6733
sg1257
(dp7104
sg412
g6759
sg270
g6771
sV379
p7105
g6445
sg1285
(dp7106
sg862
(dp7107
sV173
p7108
g6955
sg916
g5569
sg3202
(dp7109
sg240
(dp7110
sg1644
g4997
sg321
(dp7111
sg513
g6779
sg3401
(dp7112
sg3875
(dp7113
sg396
(dp7114
sg1860
(dp7115
sg3522
(dp7116
sV449
p7117
g4962
sg2536
(dp7118
sg813
(dp7119
sV443
p7120
g4976
sV442
p7121
g4984
sg1916
(dp7122
sV440
p7123
g4993
sg633
(dp7124
sg3464
g5000
sg130
(dp7125
sg3063
(dp7126
sV245
p7127
g6791
sV244
p7128
g6797
sV247
p7129
g6802
sV109
p7130
g5021
sV241
p7131
g6808
sg271
(dp7132
sg505
g6840
sg635
g6848
sg1136
g5025
sg1350
g5030
sg2445
(dp7133
sg560
g5047
sV294
p7134
g4742
sg416
g5114
sg175
g5118
sg2456
(dp7135
sg496
g5125
sV295
p7136
g4748
sg769
(dp7137
sg3163
(dp7138
sg1891
g5156
sg1015
g5185
sg3690
(dp7139
sV374
p7140
g6479
sV246
p7141
g6805
sV438
p7142
g5367
sV439
p7143
g5374
sV436
p7144
g5380
sg128
(dp7145
sV435
p7146
g5399
sg19
g6819
sV338
p7147
g5435
sg2377
g5440
sV451
p7148
g6870
sg56
g6874
sV336
p7149
g5459
sg6892
g5465
sV330
p7150
g5470
sg2358
g5478
sg2107
(dp7151
sg1949
(dp7152
sg1420
(dp7153
sg2858
(dp7154
sg390
(dp7155
sg364
(dp7156
sg1248
(dp7157
sg111
(dp7158
sg4044
(dp7159
sV176
p7160
g6902
sV174
p7161
g6925
sg3232
(dp7162
sg2071
g5038
sg429
g7001
sV170
p7163
g7013
sg2808
g4637
sV345
p7164
g5482
sg6882
g6858
sg334
(dp7165
sg7
g6565
sg2197
(dp7166
sg306
g5075
sg6884
g7021
sV183
p7167
g7029
sg689
g7035
sg3487
(dp7168
sg710
(dp7169
sg1342
(dp7170
sV194
p7171
g4829
sg451
(dp7172
sg3081
(dp7173
sV341
p7174
g4672
sg1475
(dp7175
sV196
p7176
g4841
sg13
(dp7177
sg2260
g5577
sg3408
g4847
sg422
g5498
sg158
g4880
sV402
p7178
g6365
sV99
p7179
g5519
sg298
g5528
sg1254
(dp7180
sg3603
(dp7181
sg4108
(dp7182
sg1436
(dp7183
sg161
(dp7184
sg1090
g5553
sg1608
(dp7185
sg289
(dp7186
sg2935
(dp7187
sg2069
(dp7188
sV96
p7189
g5582
sg367
(dp7190
sg359
(dp7191
sg3493
(dp7192
sg2111
(dp7193
sV348
p7194
g4689
sg267
g5990
sV272
p7195
g4904
sg2251
(dp7196
sV409
p7197
g6377
sg303
g4929
sg2702
(dp7198
sg3218
(dp7199
sg1682
(dp7200
sg283
(dp7201
sg880
(dp7202
sV395
p7203
g6695
sg669
(dp7204
sg3255
(dp7205
sg1108
(dp7206
sg848
g5309
sg3
g5593
sV239
p7207
g5601
sg3724
(dp7208
sg1851
g5642
sV231
p7209
g5680
sV276
p7210
g4935
sg942
g5706
sV375
p7211
g6473
sg183
(dp7212
sg3497
(dp7213
sg527
(dp7214
sg619
(dp7215
sg2183
(dp7216
sg2801
(dp7217
sV437
p7218
g5386
sg94
(dp7219
sg2844
(dp7220
sg3719
(dp7221
sg3918
(dp7222
sg3413
(dp7223
sg1937
(dp7224
sV140
p7225
g6006
sg2886
(dp7226
sg3429
(dp7227
sg1838
g6017
sg3787
g6026
sg648
(dp7228
sg3052
(dp7229
sg448
(dp7230
sg3959
(dp7231
sg731
(dp7232
sg1367
(dp7233
sg2201
(dp7234
sg927
(dp7235
sg53
(dp7236
sg352
(dp7237
sV144
p7238
g5940
sg2033
(dp7239
sg2618
(dp7240
sV404
p7241
g6357
sg765
(dp7242
sg1969
(dp7243
sV337
p7244
g5455
sV431
p7245
g5423
sg67
(dp7246
sg592
(dp7247
ssg1706
(dp7248
g357
(dp7249
sg130
(dp7250
sg3272
g4881
sg28
(dp7251
sg1565
(dp7252
sV186
p7253
g7169
sg271
(dp7254
sg3764
(dp7255
sV371
p7256
g6454
sg429
g7002
sV233
p7257
g5707
ssg1342
(dp7258
g2795
g5761
sg279
g6143
sg1528
g4967
sg3018
(dp7259
sg1341
g6009
sg1701
g5186
sg848
g5310
sg28
(dp7260
sV346
p7261
g4645
sV186
p7262
g7170
sg123
(dp7263
sg617
g6407
sg306
g5086
sg1363
(dp7264
ssg697
(dp7265
V147
p7266
g5883
sg698
(dp7267
sV145
p7268
g5962
sV187
p7269
g7255
sg942
g5708
sg4091
(dp7270
sg848
g5311
sg28
(dp7271
sV186
p7272
g7165
sg271
(dp7273
sg25
g6144
sV399
p7274
g6728
sg1961
(dp7275
sV409
p7276
g6379
sV408
p7277
g6418
ssg451
(dp7278
g6801
g5881
sg194
(dp7279
sg28
(dp7280
sg380
g6651
sV186
p7281
g7172
sg65
(dp7282
sg279
g6145
sg865
g6904
sg617
g6409
ssg329
(dp7283
g330
(dp7284
sg100
g6566
ssg1291
(dp7285
g966
g6157
sg359
(dp7286
sg1669
g7190
sg5426
g4654
ssg359
(dp7287
g1291
g7286
sV146
p7288
g5766
sg1148
(dp7289
sV431
p7290
g5420
sg966
g6158
sV186
p7291
g7191
sV135
p7292
g6260
sg791
(dp7293
sg2548
(dp7294
sV408
p7295
g6430
ssg650
(dp7296
V376
p7297
g6485
sg28
(dp7298
sg3799
(dp7299
sg1015
g5215
sg7
g6577
sV99
p7300
g5518
sV392
p7301
g6498
sg4041
(dp7302
sg499
g6218
sV89
p7303
g6662
sg1827
(dp7304
sg702
(dp7305
sg3696
(dp7306
sg3750
(dp7307
sg3214
(dp7308
ssg629
(dp7309
g30
g7016
sg82
g6911
sg630
(dp7310
sg6882
g6852
sg617
g6431
ssg529
(dp7311
g173
(dp7312
sg102
g6329
sg2910
(dp7313
sg3945
(dp7314
sg530
(dp7315
sg803
(dp7316
ssg2362
(dp7317
V376
p7318
g6492
sV147
p7319
g5891
sV145
p7320
g5971
sg1701
g5216
sg848
g5317
sg3272
g4873
sg25
g6159
sg1981
g7193
sV411
p7321
(dp7322
sV408
p7323
g6442
sV166
p7324
(dp7325
sV34
p7326
g5362
sV187
p7327
g7249
ssg2784
(dp7328
g1761
(dp7329
sg83
(dp7330
sg6882
g6853
sg617
g6434
ssg630
(dp7331
g629
g7310
sg1161
(dp7332
sV182
p7333
g7017
sV176
p7334
g6912
sg6882
g6854
sg617
g6435
ssg1217
(dp7335
g103
(dp7336
sg83
(dp7337
sg173
(dp7338
sg172
g6316
sg3204
(dp7339
ssg1161
(dp7340
g671
g6308
sg173
(dp7341
sV22
p7342
g6323
sV23
p7343
g6331
sV19
p7344
g7336
sg31
g7332
sg1711
(dp7345
sg1162
(dp7346
sg617
g6436
sg6882
g6855
sV21
p7347
g6317
ssg4391
(dp7348
g4358
g6877
ssg1044
(dp7349
g25
g6177
sV147
p7350
g5911
sg848
g5332
ssg392
(dp7351
g25
g6178
sV147
p7352
g5912
sg28
(dp7353
sg848
g5333
sg1526
g6025
ssg3816
(dp7354
g25
g6179
sV147
p7355
g5913
sg848
g5334
ssg3307
(dp7356
g25
g6180
sg7350
g5914
sg848
g5335
ssg2767
(dp7357
g25
g6181
sV147
p7358
g5915
sg848
g5336
ssg2229
(dp7359
g25
g6182
sV147
p7360
g5916
sg848
g5337
ssg1622
(dp7361
g25
g6183
sg848
g5338
sg3787
g6028
sg28
(dp7362
sg380
g6674
sg869
g7217
ssg1010
(dp7363
g25
g6184
sg848
g5339
sg3787
g6027
ssg3263
(dp7364
g25
g6185
sg7360
g5917
sg848
g5340
ssg2740
(dp7365
g25
g6186
sV147
p7366
g5918
sg848
g5341
ssg515
(dp7367
g28
(dp7368
sg380
g6675
sg1981
g7219
sg396
(dp7369
sg137
(dp7370
ssg1999
(dp7371
g279
g6084
sg120
g5920
sg6387
g4816
sg2191
g7220
ssg1117
(dp7372
g28
(dp7373
sg100
g6590
sg380
g6677
sV186
p7374
g7221
ssg1269
(dp7375
g6412
g5921
sg1763
(dp7376
sg1701
g5194
sg848
g5312
sg25
g6190
sg100
g6567
sg380
g6653
sg532
g7222
sg28
(dp7377
sg396
(dp7378
sg723
(dp7379
ssg218
(dp7380
g1482
(dp7381
sg2157
(dp7382
sg6387
g4814
sV193
p7383
g4859
sg848
g5345
sg279
g6191
sV392
p7384
g6497
sg219
(dp7385
sg50
g6679
sV397
p7386
g6685
sg65
(dp7387
sg2127
g6253
sg251
(dp7388
sg865
g6909
sV230
p7389
g5651
sV231
p7390
g5685
sg6672
g5716
sg194
(dp7391
sg704
g6338
sg291
g6746
sg28
(dp7392
sV186
p7393
g7223
sg1342
g7259
sg1298
(dp7394
sg1222
(dp7395
sg6412
g5922
sg3505
(dp7396
sg554
g5994
sg1673
(dp7397
sg633
(dp7398
sg2342
(dp7399
sg1786
(dp7400
sg2389
(dp7401
sg1733
(dp7402
sg6600
g5539
sg4070
(dp7403
sg1513
(dp7404
sg566
(dp7405
sg51
g7299
sg1015
g5195
sg895
(dp7406
sg940
(dp7407
sg7
g6592
ssg1061
(dp7408
g362
g5923
sg1701
g5196
sg28
(dp7409
sg470
(dp7410
sV186
p7411
g7224
sg271
(dp7412
ssg862
(dp7413
V147
p7414
g5924
sg6387
g4815
sg1015
g5197
sg182
(dp7415
sg453
(dp7416
sg966
g6193
sg12
g7107
sg65
(dp7417
sg198
(dp7418
sg28
(dp7419
sg486
(dp7420
sg76
g5653
sg194
(dp7421
ssg613
(dp7422
g25
g6194
sg1701
g5198
sg1084
g6680
sg848
g5347
sg194
(dp7423
ssg3451
(dp7424
g380
g6681
sV186
p7425
g7226
ssg42
(dp7426
g748
(dp7427
sg279
g6195
sg7
g6593
sg380
g6682
sg65
(dp7428
sg2127
g6254
sg1237
(dp7429
sg1985
(dp7430
sV231
p7431
g5687
sg28
(dp7432
sg62
g7227
sg3013
(dp7433
sg4056
(dp7434
sg3566
(dp7435
sg7089
g5925
sV205
p7436
g7397
sg633
(dp7437
sg2555
(dp7438
sg566
(dp7439
sg1015
g5199
sg848
g5348
sV408
p7440
g6416
ssg1939
(dp7441
g2620
g5927
sg306
g5089
sg53
(dp7442
sg65
(dp7443
ssg2060
(dp7444
g461
(dp7445
sg28
(dp7446
sg1883
g7229
ssg448
(dp7447
V87
p7448
g6750
sg28
(dp7449
sV186
p7450
g7230
sg449
(dp7451
sg2806
(dp7452
sg306
g5102
ssg2487
(dp7453
g966
g6197
sg1275
g5928
sV408
p7454
g6428
sg5426
g4667
sg114
g7231
ssg946
(dp7455
g279
g6198
sg191
g5929
sV349
p7456
g4696
sg947
(dp7457
ssg731
(dp7458
g28
(dp7459
sg4076
g7232
ssg1367
(dp7460
g28
(dp7461
sg3547
g7233
ssg1926
(dp7462
V147
p7463
g5930
sg652
(dp7464
sg1701
g5208
sg848
g5350
sg25
g6199
sg938
g6683
sg28
(dp7465
ssg53
(dp7466
g28
(dp7467
sg1939
g7442
sg54
(dp7468
sV186
p7469
g7236
sg829
(dp7470
sg1046
(dp7471
sg1065
g6945
ssg352
(dp7472
g410
(dp7473
sg4081
(dp7474
sg54
(dp7475
sg919
(dp7476
sV186
p7477
g7237
sV174
p7478
g6929
sV173
p7479
g6973
sg306
g5087
ssg803
(dp7480
g804
(dp7481
sV15
p7482
g7316
sg173
(dp7483
sV22
p7484
g6327
ssg1152
(dp7485
g316
g4730
sg1844
(dp7486
sV186
p7487
g7063
sg271
(dp7488
sV233
p7489
g5720
ssg3558
(dp7490
g1454
(dp7491
sg540
g7239
sg65
(dp7492
ssg676
(dp7493
g677
(dp7494
sg194
(dp7495
sg848
g5258
sg25
g6057
sg2191
g7240
sg2665
(dp7496
sg3182
(dp7497
sg1493
(dp7498
sV230
p7499
g5657
sV408
p7500
g6421
ssg1196
(dp7501
g211
(dp7502
sg2744
(dp7503
sg5415
g4923
ssg750
(dp7504
g6205
g5798
sg456
(dp7505
sg633
(dp7506
sg317
(dp7507
sg7281
g7067
sV135
p7508
g6256
sg554
g5995
ssg2560
(dp7509
g6205
g5931
sg554
g5996
sg1701
g5206
sg848
g5259
sg25
g6058
sg938
g6606
sg2643
g6240
sg28
(dp7510
ssg1943
(dp7511
g279
g6059
sV147
p7512
g5800
ssg406
(dp7513
g2078
g5801
sg554
g5998
sg3272
g4882
sg28
(dp7514
sg380
g6607
sg532
g7068
sg407
(dp7515
ssg590
(dp7516
g6205
g5802
sg194
(dp7517
sV145
p7518
g5967
sV205
p7519
g7402
sg1954
(dp7520
sg1701
g5209
sg28
(dp7521
sg848
g5260
sg3272
g4878
sV344
p7522
g4635
sg106
g6214
sg380
g6608
sg268
g7069
sV275
p7523
g4927
sg25
g6060
sV127
p7524
g7515
sV408
p7525
g6425
sg137
(dp7526
sV231
p7527
g5688
sg2643
g6241
ssg276
(dp7528
g28
(dp7529
sg194
(dp7530
sg3033
g7070
sg3657
g6426
ssg155
(dp7531
g3045
(dp7532
sg4093
(dp7533
sg1784
(dp7534
sV337
p7535
g5453
sg279
g6069
sg7
g6523
sg390
(dp7536
sV396
p7537
g6687
sV394
p7538
g6701
sV175
p7539
g6918
sV174
p7540
g6921
sg445
g6977
sV172
p7541
g6990
sg4083
(dp7542
sg156
(dp7543
sg2721
(dp7544
sg3237
(dp7545
sV186
p7546
g7076
sV402
p7547
g6363
sV401
p7548
g6367
sg2693
(dp7549
sg2957
(dp7550
sg262
(dp7551
sg1560
(dp7552
sg2164
(dp7553
sV147
p7554
g5809
sg2140
(dp7555
sg306
g5103
sV79
p7556
g7468
sV78
p7557
g7475
sg1410
(dp7558
sV435
p7559
g5394
sV370
p7560
g6459
sV434
p7561
g5391
sg2931
(dp7562
sV292
p7563
g4756
sV374
p7564
g6477
sV290
p7565
g4769
sV291
p7566
g4775
ssg3047
(dp7567
g7
g6524
sg4036
(dp7568
ssg1480
(dp7569
g25
g6070
sg28
(dp7570
sg5669
g4782
sg848
g5266
sg3532
g7078
ssg745
(dp7571
g3397
g5810
sg669
(dp7572
sg848
g5267
sg25
g6071
sg100
g6525
sV186
p7573
g7079
sg746
(dp7574
sg28
(dp7575
ssg1803
(dp7576
g28
(dp7577
sg568
g5811
sg2074
g5596
sg19
g6833
ssg1183
(dp7578
g28
(dp7579
sg357
g7322
sg942
g5733
ssg490
(dp7580
g7352
g5842
sg437
g4978
sg3787
g6020
sg28
(dp7581
sg438
g7119
sg19
g6834
sg1191
g5554
ssg1150
(dp7582
g362
g5843
sg28
(dp7583
sg364
(dp7584
sg279
g6074
sg2649
g6979
sg306
g5107
ssg2150
(dp7585
g28
(dp7586
sg1565
(dp7587
sg966
g6078
ssg4443
(dp7588
g279
g6079
sg28
(dp7589
ssg4089
(dp7590
g28
(dp7591
sg380
g6612
sg114
g7086
ssg1154
(dp7592
g917
g5819
sg848
g5272
sg25
g6081
sg380
g6613
sg1665
g7087
sg28
(dp7593
ssg3276
(dp7594
g28
(dp7595
sV186
p7596
g7103
ssg2718
(dp7597
g28
(dp7598
sg3547
g7090
sg2998
(dp7599
ssg2142
(dp7600
g1096
(dp7601
sV198
p7602
g4809
sg6387
g4818
sg1701
g5207
sg848
g5274
sg28
(dp7603
sg7
g6528
sg938
g6652
sg2191
g7173
sg25
g6146
ssg2674
(dp7604
g28
(dp7605
sg865
g6897
sg62
g7092
sg966
g6147
ssg718
(dp7606
g28
(dp7607
sg3377
(dp7608
sg1482
(dp7609
sV186
p7610
g7093
sg306
g5058
ssg1807
(dp7611
g1808
(dp7612
sg1673
g7427
sg1701
g5202
sg966
g6085
sg5041
g4946
sg100
g6568
sg938
g6616
sg746
(dp7613
sg3343
(dp7614
sg3807
(dp7615
sg3035
(dp7616
ssg2700
(dp7617
g28
(dp7618
sg2233
g7180
ssg2087
(dp7619
g28
(dp7620
sg7596
g7095
ssg240
(dp7621
g28
(dp7622
sg966
g6090
sV186
p7623
g7110
sg19
g6818
sg422
g5497
sg116
g6405
ssg2746
(dp7624
g25
g6056
sg480
g6965
sg848
g5257
sg306
g5112
ssg1100
(dp7625
g28
(dp7626
sg568
g5834
sV238
p7627
g5597
sg19
g6820
ssg1820
(dp7628
g5855
g5150
sg362
g5835
sg1821
(dp7629
ssg4459
(dp7630
g5855
g5151
sV390
p7631
(dp7632
ssg1776
(dp7633
g25
g6092
sg1701
g5187
sg895
(dp7634
sg848
g5279
ssg1757
(dp7635
g340
(dp7636
sg456
(dp7637
sg120
g5837
sg1152
g7486
sg54
g7550
sg279
g6062
sg106
g6215
sg380
g6626
sg2191
g7112
sg28
(dp7638
sg1289
(dp7639
sg445
g6976
ssg1054
(dp7640
g330
(dp7641
sg100
g6543
sg1108
(dp7642
ssg1156
(dp7643
g28
(dp7644
sg942
g5713
sg7253
g7113
sg271
(dp7645
sg3272
g4886
ssg3302
(dp7646
g966
g6072
sg47
(dp7647
sg422
g5500
ssg1108
(dp7648
g4227
g5363
sg100
g6545
sV186
p7649
g7206
sV371
p7650
g6453
sg1344
(dp7651
sg1054
g7642
sg3212
(dp7652
ssg2456
(dp7653
g191
g5847
sg3224
g7135
ssg1024
(dp7654
g28
(dp7655
sg65
(dp7656
sg966
g6113
sV186
p7657
g7138
sg271
(dp7658
sg429
g7000
sg942
g5721
ssg1564
(dp7659
g51
g7302
sg3272
g4879
sg28
(dp7660
sg100
g6550
sV89
p7661
g6634
sV186
p7662
g7139
sg65
(dp7663
sg1565
(dp7664
sg942
g5722
sg306
g5090
sg271
(dp7665
ssg535
(dp7666
g362
g5857
sg575
(dp7667
sg633
(dp7668
sg966
g6107
sg201
g4662
sg28
(dp7669
sg62
g7137
sg7454
g6422
ssg574
(dp7670
g575
(dp7671
sg28
(dp7672
sg5426
g4665
sg966
g6108
sV186
p7673
g7145
ssg657
(dp7674
g2863
(dp7675
sV234
p7676
g5604
sg7
g6551
sV82
p7677
g6715
sV83
p7678
g6726
sg658
(dp7679
sV81
p7680
g6734
sV230
p7681
g5658
sV84
p7682
g6760
sV85
p7683
g6772
sV186
p7684
g7132
sV187
p7685
g7254
sV185
p7686
g7273
sg1614
(dp7687
sg2307
(dp7688
sg2550
(dp7689
sV363
p7690
g7645
sg737
(dp7691
sV204
p7692
g7412
sV400
p7693
g6372
sg3310
(dp7694
sV120
p7695
g7488
sV381
p7696
g7658
sV382
p7697
g7665
sg3849
(dp7698
sg3417
(dp7699
sg1123
(dp7700
sV233
p7701
g5723
sV376
p7702
g6489
ssg600
(dp7703
g28
(dp7704
sg966
g6110
sg601
(dp7705
sg7673
g7175
sg1650
g6400
ssg601
(dp7706
V10
p7707
g7293
sg244
g4961
sg600
g7705
sg2099
(dp7708
sg113
g6871
sg28
(dp7709
sg380
g6636
sg1669
g7188
sg966
g6111
sg278
g4728
sV408
p7710
g6388
sV431
p7711
g5425
ssg476
(dp7712
g54
g7555
sg2275
g6505
sg410
(dp7713
sg306
g5067
sg445
g6937
ssg178
(dp7714
g1015
g5173
sg2635
g7608
sg28
(dp7715
sg7
g6552
sg622
g7208
sg65
(dp7716
sg194
(dp7717
sg429
g7006
ssg3153
(dp7718
g25
g6128
sg58
(dp7719
sg848
g5302
sg317
(dp7720
sg106
g6210
sg2191
g7151
ssg47
(dp7721
g3239
(dp7722
sg594
(dp7723
sg2567
(dp7724
sg2988
(dp7725
sg7
g6560
sg997
(dp7726
sV233
p7727
g5697
sg28
(dp7728
sg3352
(dp7729
sV186
p7730
g7152
sg846
(dp7731
sg513
g6778
sg422
g5490
sg2243
g7011
sg3302
g7647
sg956
(dp7732
sV204
p7733
g7410
sg414
g6787
sg2311
g5014
sV241
p7734
g6809
sg48
(dp7735
sV243
p7736
g6836
sg2012
(dp7737
sg2846
(dp7738
sg632
(dp7739
sg314
(dp7740
sg890
(dp7741
sg4511
(dp7742
sV408
p7743
g6389
sg2293
g6478
ssg903
(dp7744
g25
g6129
sg4017
g5867
sg848
g5303
ssg204
(dp7745
g25
g6130
sg28
(dp7746
sg3942
g7154
sg848
g5304
sV147
p7747
g5909
ssg582
(dp7748
V146
p7749
g5753
sV147
p7750
g5869
sg3967
(dp7751
sV414
p7752
g7536
sg28
(dp7753
sV186
p7754
g7155
sg65
(dp7755
sg2123
(dp7756
sg3244
(dp7757
sg3473
(dp7758
ssg364
(dp7759
g2777
(dp7760
sg2505
(dp7761
sV199
p7762
g4786
sg365
(dp7763
sg2368
(dp7764
sV28
p7765
g6339
sV191
p7766
g4848
sg3347
(dp7767
sV102
p7768
g5028
sg2645
(dp7769
sV89
p7770
g6645
sV64
p7771
g7755
sV239
p7772
g5602
sV103
p7773
g5033
sg3732
(dp7774
sg1629
(dp7775
sV86
p7776
g6741
sV231
p7777
g5676
sV435
p7778
g5400
sV24
p7779
g6282
sV25
p7780
g6288
sV26
p7781
g6296
sV27
p7782
g6305
sg1921
(dp7783
sg1361
(dp7784
sg3878
(dp7785
sg2187
(dp7786
sg817
(dp7787
sg3624
(dp7788
sV29
p7789
g6343
sg2436
(dp7790
sg586
g5740
sV406
p7791
g6352
sV186
p7792
g7156
sg513
g6785
sg422
g5492
sg492
(dp7793
sV188
p7794
g7282
sg3319
(dp7795
sg2385
(dp7796
sV409
p7797
g6378
sV408
p7798
g6392
sV87
p7799
g6752
sV205
p7800
g7387
sV207
p7801
g7417
sV208
p7802
g7428
sV99
p7803
g5520
sV121
p7804
g7492
sV382
p7805
g7663
sV109
p7806
g5022
sV243
p7807
g6845
sg1431
(dp7808
sg387
(dp7809
sV389
p7810
g7716
sV100
p7811
g5039
sV106
p7812
g5050
sV107
p7813
g5061
sV104
p7814
g5116
sV105
p7815
g5120
sV77
p7816
g7443
sV39
p7817
g5126
sg558
(dp7818
sV381
p7819
g7656
sV30
p7820
g5234
sV50
p7821
(dp7822
sV293
p7823
g4765
sg2765
(dp7824
sg2067
(dp7825
sg1150
g7584
sV436
p7826
g5381
sV297
p7827
g4738
sV108
p7828
g5015
sV295
p7829
g4749
sV374
p7830
g6480
sV246
p7831
g6806
ssg1248
(dp7832
g28
(dp7833
sg966
g6131
sV186
p7834
g7157
sg2710
(dp7835
sV408
p7836
g6385
ssg111
(dp7837
g28
(dp7838
sg966
g6132
sV186
p7839
g7158
ssg538
(dp7840
g28
(dp7841
sV186
p7842
g7159
ssg979
(dp7843
g28
(dp7844
sg3547
g7101
sg2998
(dp7845
ssg997
(dp7846
g1949
g7726
sg1673
g7429
sg633
(dp7847
sg362
g5830
ssg3282
(dp7848
g28
(dp7849
sV186
p7850
g7106
ssg2199
(dp7851
g28
(dp7852
sV186
p7853
g7162
ssg1056
(dp7854
g793
g7025
sg1176
(dp7855
sg19
g6815
sg1057
(dp7856
ssg2518
(dp7857
g28
(dp7858
sV186
p7859
g7111
ssg1862
(dp7860
g28
(dp7861
sg7859
g7228
ssg1300
(dp7862
g7
g6570
sg289
(dp7863
sg194
(dp7864
sg422
g5508
ssg48
(dp7865
g47
g7735
sg540
g7247
sg615
(dp7866
sg422
g5509
ssg1115
(dp7867
g6495
g5886
sg3796
g5948
sg615
(dp7868
sg194
(dp7869
sg848
g5313
sg279
g6040
sg7839
g7042
ssg1454
(dp7870
g1015
g5210
sg3558
g7491
sV89
p7871
g6658
sg3077
(dp7872
sg1455
(dp7873
sg2821
(dp7874
sV86
p7875
g6742
ssg1173
(dp7876
g4321
g6468
sg357
g7325
sg28
(dp7877
sg100
g6575
sg329
g7284
sV362
p7878
g7641
sg1517
(dp7879
sV361
p7880
g7651
ssg632
(dp7881
g844
(dp7882
sV140
p7883
g6005
sg633
(dp7884
sg848
g5315
sg279
g6043
sg47
g7739
sg7673
g7133
sg3470
(dp7885
sg422
g5513
sV230
p7886
g5661
sV170
p7887
g7012
ssg289
(dp7888
g4137
(dp7889
sg194
(dp7890
sg28
(dp7891
sV186
p7892
g7186
sg355
(dp7893
sg1300
g7863
sV230
p7894
g5662
ssg807
(dp7895
g28
(dp7896
sg4017
g5888
sg380
g6659
sg2682
g7187
sg615
(dp7897
ssg1092
(dp7898
g25
g6137
sV147
p7899
g5889
sg848
g5316
sg28
(dp7900
sg3949
g7168
sg2710
(dp7901
ssg1459
(dp7902
V147
p7903
g5890
sV145
p7904
g5968
sV205
p7905
g7405
sg1460
(dp7906
sV208
p7907
g7439
sV238
p7908
g5598
sg19
g6830
sV243
p7909
g6844
sg422
g5514
sg796
g7058
sg2839
(dp7910
sV231
p7911
g5689
sV408
p7912
g6429
ssg1761
(dp7913
g236
g7023
sV176
p7914
g6903
sg6882
g6861
sg2784
g7329
sg617
g6408
ssg2765
(dp7915
g242
g7242
sg65
g7824
ssg961
(dp7916
g804
(dp7917
sg7482
g7313
sg173
(dp7918
ssg2040
(dp7919
g7352
g5932
sg173
(dp7920
sV244
p7921
g6796
sV238
p7922
g5592
sg856
g6832
sV249
p7923
g6857
sV257
p7924
g7855
ssg83
(dp7925
g6321
g6309
sg6334
g6318
sg7484
g6324
sg1217
g7337
sg3317
g7345
sV182
p7926
g7020
sV17
p7927
g7330
sg173
(dp7928
sV176
p7929
g6913
sg2965
(dp7930
ssg1171
(dp7931
V15
p7932
g7314
sg173
(dp7933
sg7484
g6325
sg102
g6332
sg961
g7917
sg2996
(dp7934
sg803
g7481
ssg3296
(dp7935
g7352
g5933
sg6321
g6310
sg6334
g6319
sg7484
g6326
sg102
g6333
sg681
g7339
sg3317
g7346
sg83
g7930
sg804
g7934
sg7482
g7315
sg1057
(dp7936
ssg96
(dp7937
g5855
g5149
sg362
g5934
sg2599
(dp7938
sg97
(dp7939
ssg4511
(dp7940
g47
g7742
sg6475
g5936
ssg67
(dp7941
g28
(dp7942
sg4076
g7246
sg68
(dp7943
ssg4514
(dp7944
g362
g5937
ssg1610
(dp7945
g362
g5775
sg554
g5979
sg1954
(dp7946
sg28
(dp7947
sg25
g6037
sg1130
g6705
sg137
(dp7948
ssg211
(dp7949
V146
p7950
g5747
sV147
p7951
g5776
sg212
(dp7952
sV198
p7953
g4798
sV450
p7954
g6866
sg1015
g5158
sV196
p7955
g4839
sg2500
g5413
sg966
g6038
sV195
p7956
g4823
sg7
g6509
sg1084
g6595
sg1125
g4922
sV408
p7957
g6381
sg28
(dp7958
sV186
p7959
g7037
sg1196
g7502
sV365
p7960
g7636
sV311
p7961
g7601
sg1452
(dp7962
ssg4518
(dp7963
g1015
g5164
sg291
g6749
ssg685
(dp7964
g1374
(dp7965
sV147
p7966
g5777
sV145
p7967
g5945
sg2888
(dp7968
sV198
p7969
g4795
sg1353
(dp7970
sV317
p7971
g7609
sg3842
(dp7972
sg317
(dp7973
sV89
p7974
g6596
sV186
p7975
g7038
sg65
g7761
sV298
p7976
g4699
sg28
(dp7977
sg3038
(dp7978
sV205
p7979
g7381
sg306
g5053
sg429
g6995
sV408
p7980
g6383
ssg2157
(dp7981
g51
g7305
sg3413
g7382
sg1015
g5160
sg3246
(dp7982
sV193
p7983
g4866
sV270
p7984
g4890
sg100
g6510
sV395
p7985
g6698
sg2158
(dp7986
ssg3198
(dp7987
g28
(dp7988
sg1701
g5177
sg1513
(dp7989
ssg1912
(dp7990
V216
p7991
g7946
sg2337
g5778
sV202
p7992
g7376
sg554
g5980
sg28
(dp7993
sV128
p7994
g7520
sV88
p7995
g6511
sV186
p7996
g7039
sg611
g6707
sV231
p7997
g5670
sg1913
(dp7998
ssg1987
(dp7999
g25
g6039
sg194
(dp8000
sg848
g5245
sg28
(dp8001
sg2669
g7494
sg380
g6597
sV186
p8002
g7040
sg65
g7764
sg396
(dp8003
ssg453
(dp8004
g194
(dp8005
sg4293
g6273
sg65
g7767
sg862
g7416
ssg3772
(dp8006
g28
(dp8007
sV186
p8008
g7041
ssg147
(dp8009
V216
p8010
g7947
sV217
p8011
g7958
sV215
p8012
g7977
sg3198
g7988
sV210
p8013
g7993
sV211
p8014
g8001
sg3772
g8007
sV132
p8015
g6204
sV130
p8016
g6221
sV137
p8017
g6227
sV136
p8018
g6237
sV135
p8019
g6247
sV24
p8020
g6276
sV25
p8021
g6286
sV26
p8022
g6294
sV27
p8023
g6302
sV160
p8024
g7891
sV28
p8025
g6336
sV29
p8026
g6341
sV161
p8027
g7896
sg3138
(dp8028
sg1759
g4642
sV347
p8029
g4648
sg1736
g4670
sV342
p8030
g4676
sg312
g6371
sg665
(dp8031
sg1864
(dp8032
sg2480
(dp8033
sg3000
(dp8034
sg3550
(dp8035
sg2825
(dp8036
sg1408
(dp8037
sg1991
(dp8038
sg2583
(dp8039
sV125
p8040
g7510
sV127
p8041
g7514
sV128
p8042
g7521
sV129
p8043
g7529
sg1378
(dp8044
sV183
p8045
g7028
sg3947
(dp8046
sg1193
(dp8047
sg1251
(dp8048
sg2914
(dp8049
sg54
g7544
sV416
p8050
g7570
sV417
p8051
g7575
sg1803
g7577
sg1183
g7579
sV298
p8052
g4715
sV299
p8053
g4725
sV296
p8054
g4731
sV297
p8055
g4734
sV373
p8056
g6463
sV295
p8057
g4746
sg216
g6472
sV419
p8058
g7589
sV290
p8059
g4772
sV376
p8060
g6488
sV146
p8061
g5758
sg4089
g7591
sV318
p8062
g7593
sV198
p8063
g4802
sg119
g4821
sg2418
g4828
sV197
p8064
g4833
sV310
p8065
g7605
sg64
g4846
sV190
p8066
g4854
sg2700
g7618
sg2087
g7620
sg3805
(dp8067
sV392
p8068
g6499
sg1022
(dp8069
sV89
p8070
g6601
sg2264
(dp8071
sV396
p8072
g6690
sg3341
(dp8073
sV69
p8074
g7844
sV82
p8075
g6711
sg1569
g4953
sg1957
(dp8076
sV81
p8077
g6732
sg2220
(dp8078
sV84
p8079
g6756
sV85
p8080
g6769
sV174
p8081
g6924
sV207
p8082
g7419
sg445
g6952
sg1384
(dp8083
sg2399
(dp8084
sg240
g7622
sg1100
g7626
sg1339
(dp8085
sV365
p8086
g7638
sg1156
g7644
sg3821
(dp8087
sg753
(dp8088
sg1232
(dp8089
sV449
p8090
g4958
sV448
p8091
g4965
sV412
p8092
g7581
sV443
p8093
g4975
sg2352
g4981
sg1779
(dp8094
sV440
p8095
g4991
sV447
p8096
g4996
sg3607
(dp8097
sg3979
(dp8098
sV446
p8099
g4999
sV371
p8100
g6455
sV382
p8101
g7660
sV383
p8102
g7669
sV384
p8103
g7672
sV243
p8104
g6842
sV387
p8105
g7709
sV389
p8106
g7715
sV100
p8107
g5035
sg572
(dp8108
sg1508
g4740
sg1024
g7655
sg2150
g7586
sV31
p8109
g5182
sg908
g6800
sg1199
g4763
sV145
p8110
g5956
sV246
p8111
g6804
sV438
p8112
g5366
sg99
g5371
sV436
p8113
g5378
sV435
p8114
g5397
sV431
p8115
g5422
sg952
g5429
sg214
g5433
sg1506
g6865
sV451
p8116
g6869
sV452
p8117
g6873
sV336
p8118
g5458
sg1302
g5462
sV330
p8119
g5467
sV61
p8120
g7728
sV259
p8121
g7746
sV64
p8122
g7753
sV66
p8123
g7833
sV67
p8124
g7838
sg538
g7841
sV176
p8125
g6901
sg3282
g7849
sg2199
g7852
sg2518
g7858
sg1862
g7861
sg1117
g7373
sV272
p8126
g4903
sg190
g5480
sg3520
(dp8127
sV182
p8128
g7019
sg3276
g7595
sg689
g7034
sg2318
g7049
sV187
p8129
g7251
sV184
p8130
g7260
sV312
p8131
g7598
sV188
p8132
g7280
sV311
p8133
g7603
sV386
p8134
g7704
sV179
p8135
g6880
sg2324
(dp8136
sV97
p8137
g5573
sV317
p8138
g7607
sV185
p8139
g7271
sV98
p8140
g5527
sg3970
(dp8141
sg3442
(dp8142
sV91
p8143
g5535
sg3386
(dp8144
sV166
p8145
g7877
sV92
p8146
g5560
sV95
p8147
g5562
sV94
p8148
g5570
sV162
p8149
g7900
sg2860
(dp8150
sV393
p8151
g6494
sV13
p8152
g7298
sV88
p8153
g6564
sV273
p8154
g4913
sV409
p8155
g6375
sV32
p8156
g5155
sV408
p8157
g6403
sg640
(dp8158
sg1646
(dp8159
sg3184
(dp8160
sg3122
(dp8161
sg3855
(dp8162
sV292
p8163
g4759
sV238
p8164
g5589
sg1273
g5600
sV83
p8165
g6724
sV34
p8166
g5360
sV230
p8167
g5637
sV231
p8168
g5679
sV233
p8169
g5705
sg2695
(dp8170
sg2629
(dp8171
sg3140
(dp8172
sg148
(dp8173
sg878
(dp8174
sg1485
(dp8175
sg2085
(dp8176
sg2657
(dp8177
sg586
g5738
sV323
p8178
g7353
sg2183
(dp8179
sV324
p8180
g7362
sg2096
(dp8181
sV335
p8182
g5441
sV201
p8183
g7368
sV147
p8184
g5786
sV144
p8185
g5939
sV202
p8186
g7377
sV205
p8187
g7392
sg1061
g7409
sV140
p8188
g6003
sV141
p8189
g6011
sV208
p8190
g7432
sV148
p8191
g6016
sV149
p8192
g6030
sV76
p8193
g7446
sV75
p8194
g7449
sV72
p8195
g7459
sV71
p8196
g7461
sV70
p8197
g7465
sV334
p8198
g5445
sV79
p8199
g7467
sV291
p8200
g4777
sV404
p8201
g6358
sV413
p8202
g7583
sV359
p8203
g7942
ssg1994
(dp8204
g54
g7545
sg417
g7050
sg445
g6953
sg6923
g5074
sg28
g8028
ssg846
(dp8205
g7899
g5790
sg848
g5250
sg25
g6048
sg47
g7731
sg796
g7053
sV243
p8206
g6841
sg422
g5499
ssg3357
(dp8207
g389
g5762
sV147
p8208
g5792
sg2421
g4687
sg1318
g4697
sg3774
(dp8209
ssg2064
(dp8210
g54
g7549
sg445
g6958
sg787
g6300
sg2874
g7056
sg306
g5079
ssg665
(dp8211
g28
g8031
sg966
g6051
sV186
p8212
g7057
ssg3590
(dp8213
V205
p8214
g7394
sg1015
g5188
sV316
p8215
g7616
sg7
g6513
sg271
g7688
sg7489
g5711
sg65
g7818
ssg196
(dp8216
g917
g5793
sg1059
(dp8217
sg21
(dp8218
sg757
(dp8219
sg194
(dp8220
sg848
g5253
sg54
g7551
sg3193
g7059
sg65
g7796
sg25
g6160
sg28
g8032
sg445
g6960
ssg2480
(dp8221
g28
g8033
sg966
g6161
sV186
p8222
g7060
ssg3257
(dp8223
g54
g7552
sg1137
g7061
sg445
g6961
sg28
g8034
ssg164
(dp8224
g54
g7553
sg28
g8035
sg7
g6580
sg445
g6982
sg2373
(dp8225
ssg296
(dp8226
g1701
g5203
sg380
g6605
sV205
p8227
g7399
ssg3128
(dp8228
g28
g8037
sg3984
g7064
ssg1239
(dp8229
V147
p8230
g5797
sg28
g8038
sg1866
g6350
sV186
p8231
g7065
sg966
g6201
sg2950
(dp8232
sg1240
(dp8233
ssg2583
(dp8234
g28
g8039
sg8008
g7066
ssg3421
(dp8235
g1981
g7243
sg306
g5091
ssg3227
(dp8236
g966
g6202
sg3397
g5799
sg655
(dp8237
sg117
g7438
ssg1068
(dp8238
g7
g6516
sg3630
(dp8239
ssg1724
(dp8240
g2649
g6968
sg306
g5092
sg1731
g6991
ssg2452
(dp8241
g28
g8044
sg3664
g7403
sg1015
g5211
sg532
g7071
sg966
g6061
ssg2821
(dp8242
g1454
g7874
sg1015
g5178
sg1074
g6743
ssg58
(dp8243
V147
p8244
g5803
sg59
(dp8245
sV145
p8246
g5969
sg706
g4796
sg848
g5261
sg3153
g7719
sg7
g6518
sg25
g6063
sV408
p8247
g6432
ssg3675
(dp8248
V147
p8249
g5804
sg652
(dp8250
sV145
p8251
g5970
sV198
p8252
g4797
sg848
g5262
sg25
g6064
sg7
g6519
sg750
g7505
sg2191
g7072
sg1757
g7637
sV408
p8253
g6433
ssg21
(dp8254
g2331
g5805
sg2614
(dp8255
sg1134
(dp8256
sg3314
(dp8257
sV285
p8258
g8218
sV94
p8259
g5567
sg22
(dp8260
ssg1039
(dp8261
V147
p8262
g5806
sV145
p8263
g5972
sg3349
(dp8264
sg1040
(dp8265
sg848
g5263
sg25
g6065
sg3061
(dp8266
ssg2287
(dp8267
g2288
(dp8268
sg28
g8046
sg7
g6520
sV186
p8269
g7073
sV135
p8270
g6261
sg422
g5515
sg3692
(dp8271
sg2651
(dp8272
ssg2463
(dp8273
g6387
g4820
sg7
g6522
sV123
p8274
g7503
sV274
p8275
g4924
sg4596
(dp8276
sV433
p8277
g5414
ssg68
(dp8278
g28
g8047
sV186
p8279
g7074
sV359
p8280
g7943
ssg895
(dp8281
V147
p8282
g5807
sV145
p8283
g5949
sV205
p8284
g7406
sg554
g5983
sg1701
g5168
sg848
g5264
sg25
g6066
sg106
g6212
sg7281
g7153
sg2643
g6238
sg1776
g7634
sV408
p8285
g6390
ssg1415
(dp8286
g25
g6067
sV147
p8287
g5808
sg848
g5265
sg21
g8257
ssg1552
(dp8288
g28
g8049
sV312
p8289
g7599
sg1592
g6465
sV186
p8290
g7075
sV69
p8291
g7845
ssg2379
(dp8292
g6205
g5868
sV145
p8293
g5973
sV205
p8294
g7407
sg1701
g5222
sg848
g5330
sg25
g6176
sV408
p8295
g6391
ssg1251
(dp8296
g28
g8048
sg65
g7822
sg6348
g6262
sg7602
g4801
ssg2109
(dp8297
V146
p8298
g5773
sg28
g8067
sV174
p8299
g6926
sV198
p8300
g4807
sV195
p8301
g4825
sg2877
(dp8302
sV196
p8303
g4840
sV60
p8304
g7720
sV215
p8305
g7973
sV186
p8306
g7096
sV365
p8307
g7639
sV296
p8308
g4732
sV124
p8309
g7507
sV435
p8310
g5403
sV173
p8311
g6974
sV231
p8312
g5690
sg7701
g5696
ssg423
(dp8313
g3664
g7388
sg194
(dp8314
sg848
g5305
sg25
g6133
sg7573
g7234
sg65
g7774
sg422
g5494
ssg1256
(dp8315
V205
p8316
g7385
sg28
g8069
sV89
p8317
g6646
sV186
p8318
g7098
sg65
g7769
sg3148
(dp8319
sg2231
(dp8320
sg1257
(dp8321
sV171
p8322
g6997
ssg3248
(dp8323
g28
g8159
sg1015
g5169
sg7661
g6619
sV186
p8324
g7196
sg65
g7825
ssg901
(dp8325
g1369
(dp8326
sg28
g8071
sg7
g6534
sg380
g6665
sV186
p8327
g7099
sg3118
g5626
sV231
p8328
g5675
ssg1667
(dp8329
g655
(dp8330
sg848
g5276
sV316
p8331
g7613
sg25
g6087
sg5656
g5529
sV417
p8332
g7574
sV408
p8333
g6437
ssg3341
(dp8334
g28
g8073
sV186
p8335
g7100
ssg3520
(dp8336
g28
g8127
sV186
p8337
g7166
ssg1751
(dp8338
g362
g5829
sg3813
(dp8339
sg117
g7430
sg100
g6537
sg125
g4948
sV101
p8340
g5044
sV85
p8341
g6774
sg2534
(dp8342
ssg1257
(dp8343
g54
g7543
sg28
g8078
sg1256
g8321
sV186
p8344
g7104
sg1005
g6920
sg233
g6943
ssg771
(dp8345
g28
g8083
sg7352
g5833
sg19
g6828
sg3787
g6033
ssg3352
(dp8346
g966
g6089
sg47
g7729
sg422
g5496
ssg2058
(dp8347
g117
g7433
sg7
g6540
sg65
g7793
sg6672
g5709
ssg3480
(dp8348
g28
g8085
sg362
g5836
sg617
g6424
ssg2881
(dp8349
g271
g7687
sg942
g5710
ssg2791
(dp8350
g858
(dp8351
sg848
g5280
sg122
g5357
sg1469
(dp8352
sg25
g6093
sg7
g6542
sg65
g7795
sg334
g7275
sg306
g5080
ssg3937
(dp8353
g25
g6094
sV147
p8354
g5838
sg942
g5712
sg271
g7689
sg848
g5281
ssg3424
(dp8355
g25
g6068
sg848
g5282
sg5907
g5732
ssg369
(dp8356
g1625
(dp8357
sg1482
g7965
sg80
g7986
sg655
(dp8358
sg1987
g8003
sg3272
g4874
sg25
g6096
sg7
g6544
sg7661
g6627
sg1389
g6699
sg5041
g4950
sV230
p8359
g5645
sV231
p8360
g5681
sg429
g7008
sg15
g6306
sg45
(dp8361
sg28
g8087
sV186
p8362
g7114
sg513
g6784
sg334
g7270
sg1108
g7652
sg515
g7369
sV202
p8363
g7378
sg1745
g7395
sg1673
g7434
sg667
(dp8364
sg1587
(dp8365
sg370
(dp8366
sg330
g7879
sg1631
(dp8367
sg51
g7307
sV38
p8368
g5139
sg1701
g5223
sg848
g5283
ssg956
(dp8369
g1096
g7962
sg823
(dp8370
sg957
(dp8371
sg279
g6097
sg47
g7732
sg106
g6216
sg938
g6628
sg390
g7758
sg7508
g6263
sg1130
g6722
sg2649
g6966
sg1751
g8342
sg1513
(dp8372
sg28
g8088
sg62
g7115
sg2146
g7264
sg3357
g8209
sg5426
g4666
sg617
g6410
sg2331
g5839
sg1673
g7435
sg633
(dp8373
sg1434
g6792
sg1319
g7457
sg271
g7691
sg5041
g4951
sg306
g5110
sg566
g7910
sg359
g7294
sg21
g8260
sg1039
g8266
sg1701
g5227
sg54
g7562
sg5855
g5153
sg1821
(dp8374
sg96
g7939
sg19
g6821
ssg1232
(dp8375
g28
g8089
sg2495
g7116
ssg4581
(dp8376
g54
g7534
sg419
g6284
sg445
g6933
sg306
g5084
ssg2099
(dp8377
g359
g7289
sg535
g7667
sV299
p8378
g4723
sg848
g5284
sg28
g8084
sg380
g6630
sg574
g7671
sg279
g6099
sg601
g7708
sg611
g6709
sg7673
g7109
sV408
p8379
g6415
sg137
(dp8380
ssg3686
(dp8381
g437
g4972
sg1090
g5549
sg1526
g6022
ssg2094
(dp8382
g2795
g5767
sg317
g8302
sg28
g8094
sg2191
g7122
sg279
g6095
sg865
g6910
sg617
g6417
ssg897
(dp8383
g437
g4971
sg25
g6101
sV186
p8384
g7118
sg848
g5286
sg362
g5841
ssg633
(dp8385
V146
p8386
g5768
sV147
p8387
g5844
sV205
p8388
g7398
sV383
p8389
g7668
sV406
p8390
g6351
sV208
p8391
g7437
sg1701
g5201
sV131
p8392
g6208
sg855
g6346
sg27
g7027
sg100
g6547
sg938
g6632
sV124
p8393
g7506
sg972
g6236
sg8270
g6255
sV299
p8394
g4724
sV186
p8395
g7124
sV250
p8396
g7847
sV167
p8397
g7884
sV426
p8398
g8373
ssg3607
(dp8399
g28
g8097
sg271
g7694
sV233
p8400
g5718
ssg3595
(dp8401
V147
p8402
g5845
sV145
p8403
g5963
sV453
p8404
g6878
sg848
g5287
sg122
g5355
sg25
g6109
sg7
g6548
sg1482
g7972
sV186
p8405
g7125
sg1706
g7250
sg28
g8098
sg185
g5605
sV408
p8406
g6419
sV233
p8407
g5719
ssg572
(dp8408
g28
g8108
sg6801
g5853
sV186
p8409
g7126
ssg347
(dp8410
g194
(dp8411
sg6881
g5641
ssg198
(dp8412
g5669
g4787
sg199
(dp8413
sg757
(dp8414
sg608
g5471
sg966
g6149
sg7
g6571
sg1084
g6655
sg187
g6229
sV66
p8415
g7835
sg2627
g6888
sg91
g6893
sg3072
g6270
sg248
g6735
sg34
g6967
sg412
g6761
sg270
g6773
sg28
g8141
sg1851
g5659
sg183
(dp8416
sg77
(dp8417
sg586
g5741
sV405
p8418
g6355
sg265
g7181
sg2260
g5578
sg16
g8364
sg3657
g6423
sV146
p8419
g5770
sg2078
g5884
sV145
p8420
g5966
sg3664
g7400
sg554
g5997
sg862
g7418
sg2266
g6013
sg5656
g5530
sg2669
g7496
sg271
g7698
sg71
(dp8421
sg345
g7885
sg289
g7893
sV162
p8422
g7901
sg1410
(dp8423
sg496
g5127
sg336
g5135
sg1015
g5205
ssg182
(dp8424
g1482
g7970
sg5669
g4788
sg2038
(dp8425
sg757
(dp8426
sg3408
g4850
sg8215
g7614
sg966
g6150
sg47
g7737
sg219
g8319
sg1084
g6656
sg390
g7756
sg364
g7808
sg6348
g6257
sg1454
g7872
sg429
g7004
sg6672
g5724
sg169
g6280
sg419
g6290
sg787
g6298
sg487
(dp8427
sg1574
(dp8428
sg2044
(dp8429
sg183
(dp8430
sg858
(dp8431
sg527
(dp8432
sg1469
(dp8433
sg28
g8142
sg1137
g7182
sg513
g6781
sg422
g5511
sg16
g8365
sg2795
g5771
sg6801
g5885
sg3664
g7401
sg862
g7415
sg2669
g7497
sg1239
g8232
sg635
g6850
sg461
(dp8434
sg6
g5543
sg306
g5088
sg53
g7470
sg496
g5128
sg336
g5136
sg1015
g5163
sg448
g7451
sg586
g5742
sg7
g6572
ssg486
(dp8435
g1482
g7978
sg5669
g4789
sV229
p8436
g8421
sg2038
(dp8437
sg757
(dp8438
sV228
p8439
g8434
sg3408
g4851
sg8215
g7615
sg966
g6151
sg47
g7738
sg219
g8320
sg1084
g6657
sg582
g7757
sg364
g7809
sg6348
g6258
sg6
g5544
sV108
p8440
g5017
sV230
p8441
g5660
sg429
g7005
sg6672
g5725
sg169
g6281
sg419
g6291
sg787
g6299
sg487
(dp8442
sg1574
(dp8443
sg2044
(dp8444
sg183
(dp8445
sg858
(dp8446
sg527
(dp8447
sg1469
(dp8448
sg28
g8036
sg1137
g7183
sV187
p8449
g7252
sg513
g6782
sg422
g5512
sg16
g8366
sV286
p8450
g8225
sg2795
g5772
sV147
p8451
g5796
sV145
p8452
g5960
sg3664
g7396
sg862
g7420
sV382
p8453
g7664
sg2060
g7445
sg2669
g7498
sg465
g5019
sg1239
g8233
sg635
g6847
sg325
g5534
sg1454
g7873
sg36
g5093
sg53
g7471
sg496
g5129
sg336
g5137
sg1015
g5166
sg460
g5231
sg448
g7452
sg586
g5743
sg7
g6573
sV297
p8454
g4735
sV408
p8455
g6413
sV418
p8456
g7587
sV293
p8457
g4766
sg921
g4774
ssg3386
(dp8458
g28
g8144
sg942
g5726
sV186
p8459
g7184
sg271
g7699
sg3272
g4884
ssg4596
(dp8460
g2463
g8276
ssg253
(dp8461
g1015
g5212
sg2724
g7185
sg51
g7306
sg100
g6576
ssg4599
(dp8462
g1015
g5213
sg6672
g5728
ssg314
(dp8463
g362
g5785
sV205
p8464
g7404
sV213
p8465
g7989
sg2287
g8271
sg47
g7740
sV186
p8466
g7048
sg271
g7700
sV426
p8467
g8372
sV233
p8468
g5729
ssg1631
(dp8469
g28
g8136
sg3272
g4887
sg966
g6148
sg380
g6660
sg242
g7177
sg396
g8367
ssg890
(dp8470
V216
p8471
g7948
sg891
(dp8472
sg3395
(dp8473
sg1763
g7998
sg3272
g4871
sg966
g6156
sg47
g7741
sV272
p8474
g4910
sg380
g6661
sV134
p8475
g6266
sg2649
g6975
sg1326
g6993
sV230
p8476
g5663
sg28
g8150
sg268
g7192
sg513
g6783
sV201
p8477
g7370
sV202
p8478
g7379
sg554
g6000
sV300
p8479
g8380
sV229
p8480
g8423
sV128
p8481
g7526
sg306
g5098
sg51
g7308
sg2287
g8272
sg7
g6517
sg155
g7558
sV298
p8482
g4720
sV439
p8483
g5376
sV295
p8484
g4754
ssg332
(dp8485
g1015
g5167
sg519
g6663
sg7
g6559
ssg1392
(dp8486
g1997
(dp8487
sg3379
(dp8488
sV31
p8489
g5219
sg51
g7304
sg7
g6532
sg1185
g6664
sV395
p8490
g6694
sV343
p8491
g4682
sV78
p8492
g7476
ssg1246
(dp8493
g362
g5892
sg1245
g5242
sg848
g5275
sg25
g6086
sg7
g6579
sg4309
g6361
sg96
g7938
sg1820
g7629
sV367
p8494
g7632
sV426
p8495
g8374
ssg2439
(dp8496
g2331
g5893
sg2495
g7198
ssg1040
(dp8497
g1039
g8265
sg3193
g7199
sg957
(dp8498
sg917
g5894
ssg44
(dp8499
g211
g7952
sg274
(dp8500
sV135
p8501
g6245
sg6387
g4813
sg8215
g7612
sg25
g6163
sg1949
g7722
sg919
g8487
sg499
g6220
sg503
g8326
sg65
g7760
sg1389
g6692
sg80
g7982
sg142
g5617
sg291
g6745
sg6672
g5695
sg1751
g8339
sg45
(dp8502
sg858
(dp8503
sg28
g8158
sV406
p8504
g6353
sg3033
g7200
sg334
g7267
sg16
g8357
sV408
p8505
g6382
sV147
p8506
g5895
sV145
p8507
g5944
sV244
p8508
g6794
sg271
g7675
sV265
p8509
g8239
sg1926
g7464
sg6
g5538
sg345
g7882
sg289
g7889
sg306
g5052
sg1410
g8472
sg58
g8245
sg3675
g8250
sg445
g6931
sg2275
g6507
sg5855
g5142
sg1015
g5159
sg1245
g5237
sg848
g5318
sg54
g7532
sV415
p8510
g7568
sg50
g6666
sg100
g6581
sV426
p8511
g8370
sg2287
g8268
sg856
g6811
ssg283
(dp8512
g25
g6164
sg7352
g5896
sg3193
g7201
sg848
g5319
sg21
g8255
ssg880
(dp8513
V153
p8514
g8500
sg1482
g7968
sV276
p8515
g4932
sg3408
g4844
sg848
g5320
sg279
g6165
sg2275
g6506
sg7
g6582
sV89
p8516
g6667
sg390
g7751
sg65
g7775
sg1389
g6693
sV277
p8517
g4941
sg865
g6895
sg1065
g6932
sg1731
g6988
sg429
g6996
sg169
g6275
sg419
g6285
sg787
g6293
sg487
(dp8518
sg1574
(dp8519
sg1851
g5618
sg858
(dp8520
sg527
(dp8521
sg1469
(dp8522
sg28
g8181
sg1883
g7202
sV184
p8523
g7263
sV343
p8524
g4680
sg1410
g8473
sg617
g6384
sg6458
g5897
sV388
p8525
g7713
sV107
p8526
g5054
sV78
p8527
g7473
sV270
p8528
g4893
sV271
p8529
g4899
sg919
g8488
sV35
p8530
g5354
sV414
p8531
g7533
sV298
p8532
g4700
sg2044
(dp8533
sV437
p8534
g5384
sV435
p8535
g5395
ssg3349
(dp8536
V150
p8537
g8498
sg25
g6166
sg938
g6668
sV257
p8538
g7856
sV20
p8539
g6312
sV21
p8540
g6314
sV22
p8541
g6322
sV23
p8542
g6330
sg2495
g7235
sg803
g7483
sV285
p8543
g8217
sV426
p8544
g8371
sg7352
g5898
sV149
p8545
g6035
sV244
p8546
g6795
sV240
p8547
g6812
sg566
g7906
sV15
p8548
g7312
sg21
g8256
sV19
p8549
g7338
sg1039
g8264
sg1701
g5226
sg848
g5321
sV356
p8550
g7918
sV355
p8551
g7920
sV354
p8552
g7928
sV353
p8553
g7933
sV352
p8554
g7936
sV18
p8555
g7341
ssg594
(dp8556
g3684
(dp8557
sg966
g6167
sg47
g7723
sg65
g7763
sV86
p8558
g6739
sV231
p8559
g5677
sV170
p8560
g7014
sg28
g8160
sV186
p8561
g7204
sV227
p8562
g8437
sg422
g5486
sV427
p8563
g8358
sV408
p8564
g6386
sV146
p8565
g5749
sV147
p8566
g5899
sV144
p8567
g5942
sV145
p8568
g5946
sV169
p8569
g7866
sV228
p8570
g8425
sV164
p8571
g7868
sg807
g7897
sV97
p8572
g5574
sV91
p8573
g5536
sV110
p8574
g8330
sV417
p8575
g7572
sV266
p8576
g8237
ssg249
(dp8577
g611
g6708
sg248
g6730
ssg2567
(dp8578
g6475
g5900
sg2710
g8413
sg848
g5322
sg28
g8161
sg47
g7724
sg380
g6669
sg540
g7205
sg279
g6168
sg422
g5487
ssg2988
(dp8579
g615
g8557
sV230
p8580
g5620
sg422
g5488
sg848
g5323
sg279
g6169
sg47
g7725
sV229
p8581
g8414
sV228
p8582
g8426
sV227
p8583
g8438
sV174
p8584
g6922
sV285
p8585
g8219
sV173
p8586
g6934
ssg1871
(dp8587
g28
g8162
sg7
g6583
sg50
g6623
sg2129
g5628
ssg1283
(dp8588
g194
(dp8589
sg28
g8076
sV272
p8590
g4906
sV273
p8591
g4916
sg271
g7679
sg611
g6718
sg2148
g5631
ssg4619
(dp8592
V34
p8593
g5361
ssg487
(dp8594
V155
p8595
g8518
sV298
p8596
g4711
sg28
g8170
sg65
g7783
sg1979
g6369
sV228
p8597
g8427
sV227
p8598
g8442
sV173
p8599
g6946
ssg1335
(dp8600
g2620
g5908
sg7
g6587
sg306
g5068
sg65
g7784
sg527
(dp8601
ssg1574
(dp8602
V155
p8603
g8519
sg2215
g5452
sg28
g8171
sg65
g7785
sV298
p8604
g4712
sV228
p8605
g8428
sV227
p8606
g8443
sV173
p8607
g6947
ssg2044
(dp8608
V155
p8609
g8533
sV228
p8610
g8429
sg28
g8172
sg65
g7786
sV298
p8611
g4713
sg2043
g6702
sV227
p8612
g8444
sV173
p8613
g6948
ssg183
(dp8614
V153
p8615
g8502
sV199
p8616
g4781
sV211
p8617
g8000
sV218
p8618
g8005
sV227
p8619
g8445
sV164
p8620
g7869
sg163
g6588
sV89
p8621
g6673
sg65
g7787
sV178
p8622
g6886
sV82
p8623
g6710
sV83
p8624
g6725
sV80
p8625
g8589
sV81
p8626
g6731
sV230
p8627
g5638
sV231
p8628
g5678
sV84
p8629
g6755
sV85
p8630
g6767
sV27
p8631
g6303
sV140
p8632
g6007
sg584
(dp8633
sV28
p8634
g6337
sV172
p8635
g6989
sg586
g5737
sV183
p8636
g7030
sV180
p8637
g7032
sV181
p8638
g8411
sV186
p8639
g7212
sV206
p8640
g7423
sV188
p8641
g7279
sV233
p8642
g5704
sV285
p8643
g8220
sV68
p8644
g8314
sV408
p8645
g6401
sV449
p8646
g4957
sV205
p8647
g7391
sV143
p8648
g5988
sV207
p8649
g7421
sV141
p8650
g6010
sV139
p8651
g6268
sV142
p8652
g5976
sV445
p8653
g5003
sV98
p8654
g5526
sV122
p8655
g7495
sV109
p8656
g5023
sV168
p8657
g7864
sV229
p8658
g8416
sV228
p8659
g8430
sV128
p8660
g7517
sV389
p8661
g7717
sV160
p8662
g7890
sV129
p8663
g7530
sV96
p8664
g5583
sV39
p8665
g5122
sV295
p8666
g4745
sg9
g5180
sV36
p8667
g5331
sV177
p8668
g6891
sV293
p8669
g4761
sV130
p8670
g6219
sg369
g8361
sV436
p8671
g5382
sV435
p8672
g5396
sV432
p8673
g5410
sV374
p8674
g6476
ssg77
(dp8675
V147
p8676
g5910
sV145
p8677
g5955
sV37
p8678
g5239
sg194
g8633
sg3408
g4845
sg28
g8173
sV229
p8679
g8417
sV230
p8680
g5639
sg306
g5070
ssg3497
(dp8681
V153
p8682
g8503
sV155
p8683
g8520
sg28
g8174
sg2698
g7213
sg65
g7788
sV228
p8684
g8431
sV227
p8685
g8446
sg2791
g8351
sg306
g5071
ssg527
(dp8686
V155
p8687
g8521
sg1335
g8601
sg28
g8175
sV186
p8688
g7214
sV228
p8689
g8432
sV227
p8690
g8447
sV173
p8691
g6949
sg306
g5072
ssg619
(dp8692
g54
g7542
sg8324
g7215
sg7108
g6950
sg28
g8176
ssg1469
(dp8693
V155
p8694
g8522
sg28
g8177
sg65
g7790
sV298
p8695
g4714
sV228
p8696
g8433
sV227
p8697
g8448
sV422
p8698
g8352
sg352
g7474
ssg2183
(dp8699
g28
g8179
sV186
p8700
g7216
sssg4148
(dp8701
sS'node_dict_factory'
p8702
c__builtin__
dict
p8703
sS'adjlist_dict_factory'
p8704
g8703
sS'adj'
p8705
g4633
sS'edge_attr_dict_factory'
p8706
g8703
sbs.