(dp0
V952
p1
(lp2
(I3
I4
tp3
asV3492
p4
(lp5
(I3
I4
tp6
asV1309
p7
(lp8
(I3
I4
tp9
a(I3
I5
tp10
a(I4
I5
tp11
asV661
p12
(lp13
(I3
I4
tp14
asV4606
p15
(lp16
(I3
I4
tp17
asV135
p18
(lp19
(I3
I4
tp20
asV7226
p21
(lp22
(I3
I4
tp23
asV1836
p24
(lp25
(I3
I4
tp26
asV5271
p27
(lp28
(I3
I4
tp29
asV1838
p30
(lp31
(I3
I4
tp32
asV699
p33
(lp34
(I3
I4
tp35
asV5623
p36
(lp37
(I3
I4
tp38
asV3721
p39
(lp40
(I3
I4
tp41
asV2406
p42
(lp43
(I3
I4
tp44
asV6249
p45
(lp46
(I3
I4
tp47
asV405
p48
(lp49
(I3
I4
tp50
asV2249
p51
(lp52
(I3
I4
tp53
asV349
p54
(lp55
(I3
I4
tp56
asV3760
p57
(lp58
(I3
I4
tp59
asV1313
p60
(lp61
(I3
I4
tp62
asV1154
p63
(lp64
(I3
I4
tp65
asV4882
p66
(lp67
(I3
I4
tp68
asV713
p69
(lp70
(I3
I4
tp71
asV260
p72
(lp73
(I3
I4
tp74
asV4566
p75
(lp76
(I3
I4
tp77
asV5466
p78
(lp79
(I3
I4
tp80
asV8023
p81
(lp82
(I3
I4
tp83
a(I3
I5
tp84
a(I4
I5
tp85
asV5998
p86
(lp87
(I3
I4
tp88
asV1555
p89
(lp90
(I3
I4
tp91
asV4136
p92
(lp93
(I3
I4
tp94
a(I3
I5
tp95
a(I4
I5
tp96
asV534
p97
(lp98
(I3
I4
tp99
asV1389
p100
(lp101
(I3
I4
tp102
a(I3
I5
tp103
a(I4
I5
tp104
asV531
p105
(lp106
(I3
I4
tp107
asV530
p108
(lp109
(I3
I4
tp110
asV825
p111
(lp112
(I3
I4
tp113
asV824
p114
(lp115
(I3
I4
tp116
asV822
p117
(lp118
(I3
I4
tp119
asV3776
p120
(lp121
(I3
I4
tp122
asV707
p123
(lp124
(I3
I4
tp125
asV1126
p126
(lp127
(I3
I4
tp128
asV703
p129
(lp130
(I3
I4
tp131
asV393
p132
(lp133
(I3
I4
tp134
asV88
p135
(lp136
(I3
I4
tp137
asV89
p138
(lp139
(I3
I4
tp140
asV1489
p141
(lp142
(I3
I4
tp143
asV4802
p144
(lp145
(I3
I4
tp146
asV5251
p147
(lp148
(I3
I4
tp149
asV836
p150
(lp151
(I3
I4
tp152
asV837
p153
(lp154
(I3
I4
tp155
a(I3
I5
tp156
a(I4
I5
tp157
asV1718
p158
(lp159
(I3
I4
tp160
asV5560
p161
(lp162
(I3
I4
tp163
asV4411
p164
(lp165
(I3
I4
tp166
asV4497
p167
(lp168
(I3
I4
tp169
asV1252
p170
(lp171
(I3
I4
tp172
asV4967
p173
(lp174
(I3
I4
tp175
asV1015
p176
(lp177
(I3
I4
tp178
asV5686
p179
(lp180
(I3
I4
tp181
asV1406
p182
(lp183
(I3
I4
tp184
asV2075
p185
(lp186
(I3
I4
tp187
asV2938
p188
(lp189
(I3
I4
tp190
asV4114
p191
(lp192
(I3
I4
tp193
asV387
p194
(lp195
(I3
I4
tp196
asV7452
p197
(lp198
(I3
I4
tp199
asV5773
p200
(lp201
(I3
I4
tp202
asV5482
p203
(lp204
(I3
I4
tp205
asV4294
p206
(lp207
(I3
I4
tp208
a(I3
I5
tp209
a(I4
I5
tp210
asV649
p211
(lp212
(I3
I4
tp213
asV1074
p214
(lp215
(I3
I4
tp216
asV622
p217
(lp218
(I3
I4
tp219
asV28
p220
(lp221
(I3
I4
tp222
asV454
p223
(lp224
(I3
I4
tp225
asV2294
p226
(lp227
(I3
I4
tp228
asV173
p229
(lp230
(I3
I4
tp231
asV3291
p232
(lp233
(I3
I4
tp234
asV2057
p235
(lp236
(I3
I4
tp237
a(I3
I5
tp238
a(I4
I5
tp239
asV2209
p240
(lp241
(I3
I4
tp242
asV5786
p243
(lp244
(I3
I4
tp245
asV1504
p246
(lp247
(I3
I4
tp248
asV503
p249
(lp250
(I3
I4
tp251
asV752
p252
(lp253
(I3
I4
tp254
a(I3
I5
tp255
a(I4
I5
tp256
asV751
p257
(lp258
(I3
I4
tp259
asV750
p260
(lp261
(I3
I4
tp262
asV1042
p263
(lp264
(I3
I4
tp265
a(I3
I5
tp266
a(I4
I5
tp267
asV5023
p268
(lp269
(I3
I4
tp270
asV563
p271
(lp272
(I3
I4
tp273
asV565
p274
(lp275
(I3
I4
tp276
a(I3
I5
tp277
a(I4
I5
tp278
asV3072
p279
(lp280
(I3
I4
tp281
asV4446
p282
(lp283
(I3
I4
tp284
asV91
p285
(lp286
(I3
I4
tp287
asV90
p288
(lp289
(I3
I4
tp290
a(I3
I5
tp291
a(I4
I5
tp292
asV93
p293
(lp294
(I3
I4
tp295
asV92
p296
(lp297
(I3
I4
tp298
asV95
p299
(lp300
(I3
I4
tp301
asV1914
p302
(lp303
(I3
I4
tp304
a(I3
I5
tp305
a(I4
I5
tp306
asV96
p307
(lp308
(I3
I4
tp309
a(I3
I5
tp310
a(I4
I5
tp311
asV964
p312
(lp313
(I3
I4
tp314
asV150
p315
(lp316
(I3
I4
tp317
asV4085
p318
(lp319
(I3
I4
tp320
a(I3
I5
tp321
a(I4
I5
tp322
asV3863
p323
(lp324
(I3
I4
tp325
asV5297
p326
(lp327
(I3
I4
tp328
asV6813
p329
(lp330
(I3
I4
tp331
asV5293
p332
(lp333
(I3
I4
tp334
asV236
p335
(lp336
(I3
I4
tp337
asV1897
p338
(lp339
(I3
I4
tp340
asV2340
p341
(lp342
(I3
I4
tp343
asV1617
p344
(lp345
(I3
I4
tp346
asV1614
p347
(lp348
(I3
I4
tp349
asV1615
p350
(lp351
(I3
I4
tp352
asV4591
p353
(lp354
(I3
I4
tp355
asV4096
p356
(lp357
(I3
I4
tp358
asV2720
p359
(lp360
(I3
I4
tp361
asV350
p362
(lp363
(I3
I4
tp364
a(I3
I5
tp365
a(I4
I5
tp366
asV1275
p367
(lp368
(I3
I4
tp369
asV460
p370
(lp371
(I3
I4
tp372
asV72
p373
(lp374
(I3
I4
tp375
asV1717
p376
(lp377
(I3
I4
tp378
asV2977
p379
(lp380
(I3
I4
tp381
asV78
p382
(lp383
(I3
I4
tp384
asV4399
p385
(lp386
(I3
I4
tp387
asV3428
p388
(lp389
(I3
I4
tp390
asV7331
p391
(lp392
(I3
I4
tp393
asV5065
p394
(lp395
(I3
I4
tp396
asV945
p397
(lp398
(I3
I4
tp399
asV1365
p400
(lp401
(I3
I4
tp402
a(I3
I5
tp403
a(I4
I5
tp404
asV353
p405
(lp406
(I3
I4
tp407
asV351
p408
(lp409
(I3
I4
tp410
asV3190
p411
(lp412
(I3
I4
tp413
asV1762
p414
(lp415
(I3
I4
tp416
asV3983
p417
(lp418
(I3
I4
tp419
asV3198
p420
(lp421
(I3
I4
tp422
as.