(dp0
(I4
I5
tp1
(lp2
c__builtin__
frozenset
p3
((lp4
V1365
p5
aV837
p6
aV8023
p7
aV90
p8
aV565
p9
aV4085
p10
atp11
Rp12
ag3
((lp13
V1042
p14
aV96
p15
ag8
aV2057
p16
aV752
p17
atp18
Rp19
ag3
((lp20
V752
p21
ag8
aV837
p22
aV4136
p23
aV565
p24
atp25
Rp26
ag3
((lp27
V4294
p28
aV350
p29
aV1365
p30
aV837
p31
aV1309
p32
atp33
Rp34
ag3
((lp35
V1042
p36
aV1914
p37
aV565
p38
ag8
aV1389
p39
atp40
Rp41
as(I3
I4
tp42
(lp43
g3
((lp44
V78
p45
aV91
p46
aV707
p47
aV703
p48
ag38
ag37
atp49
Rp50
ag3
((lp51
V622
p52
aV952
p53
aV3492
p54
ag32
aV8023
p55
aV173
p56
aV3291
p57
aV3776
p58
aV1836
p59
aV2057
p60
aV2209
p61
aV1838
p62
aV28
p63
aV5482
p64
aV2406
p65
aV2249
p66
aV503
p67
aV5065
p68
ag17
aV750
p69
aV1042
p70
aV1154
p71
aV4882
p72
aV713
p73
aV460
p74
aV3072
p75
aV4566
p76
aV5466
p77
aV4606
p78
ag8
aV95
p79
ag37
aV96
p80
aV1555
p81
ag23
aV1406
p82
aV534
p83
aV1389
p84
aV531
p85
aV530
p86
aV825
p87
aV824
p88
aV150
p89
aV4085
p90
aV3863
p91
aV6813
p92
aV1126
p93
ag48
aV393
p94
aV88
p95
aV3721
p96
aV236
p97
aV1897
p98
aV5251
p99
aV836
p100
aV837
p101
aV1617
p102
aV1614
p103
aV1615
p104
aV5560
p105
aV4497
p106
aV4591
p107
aV5023
p108
aV2075
p109
aV4096
p110
aV1275
p111
ag9
aV4114
p112
aV387
p113
aV7452
p114
aV2977
p115
aV2340
p116
aV4399
p117
ag28
aV945
p118
ag30
aV351
p119
ag29
aV649
p120
aV5998
p121
aV3983
p122
atp123
Rp124
ag3
((lp125
V751
p126
aV750
p127
ag101
aV4446
p128
atp129
Rp130
ag3
((lp131
g17
ag83
aV3190
p132
aV93
p133
aV5686
p134
aV565
p135
atp136
Rp137
ag3
((lp138
V1762
p139
aV5773
p140
aV5271
p141
aV5293
p142
atp143
Rp144
ag3
((lp145
V3198
p146
aV349
p147
ag119
aV7226
p148
atp149
Rp150
ag3
((lp151
V5786
p152
aV750
p153
ag119
ag8
aV1015
p154
aV1489
p155
aV349
p156
atp157
Rp158
ag3
((lp159
V1717
p160
aV1718
p161
aV1313
p162
aV454
p163
atp164
Rp165
ag3
((lp166
V964
p167
aV405
p168
aV72
p169
aV135
p170
atp171
Rp172
ag3
((lp173
g46
aV8023
p174
aV1074
p175
aV565
p176
atp177
Rp178
ag3
((lp179
g89
aV3428
p180
aV1252
p181
ag39
aV649
p182
aV563
p183
atp184
Rp185
ag3
((lp186
V2294
p187
aV6249
p188
aV260
p189
aV2720
p190
atp191
Rp192
ag3
((lp193
V7331
p194
aV1504
p195
aV2938
p196
aV4411
p197
atp198
Rp199
ag3
((lp200
V4967
p201
aV353
p202
aV349
p203
aV3198
p204
atp205
Rp206
ag3
((lp207
V88
p208
ag46
aV5297
p209
aV699
p210
aV5623
p211
ag9
atp212
Rp213
ag3
((lp214
V1042
p215
aV4802
p216
aV531
p217
aV824
p218
atp219
Rp220
ag3
((lp221
V3760
p222
aV750
p223
aV89
p224
aV1074
p225
aV1275
p226
aV822
p227
atp228
Rp229
ag3
((lp230
V750
p231
aV4446
p232
aV824
p233
ag225
aV92
p234
aV661
p235
atp236
Rp237
as(I3
I5
tp238
(lp239
g3
((lp240
g17
aV837
p241
aV565
p242
ag23
ag5
ag8
ag55
ag90
atp243
Rp244
ag3
((lp245
g28
ag30
ag32
ag31
ag29
atp246
Rp247
ag3
((lp248
V1042
p249
ag37
ag84
ag9
ag8
atp250
Rp251
ag3
((lp252
V752
p253
ag15
ag8
aV2057
p254
aV1042
p255
atp256
Rp257
as.