(dp0
(I4
I5
tp1
(lp2
c__builtin__
frozenset
p3
((lp4
V5
p5
aV856
p6
aV353
p7
aV1458
p8
aV149
p9
atp10
Rp11
ag3
((lp12
V1317
p13
aV856
p14
aV145
p15
aV1258
p16
aV177
p17
aV4187
p18
aV149
p19
atp20
Rp21
ag3
((lp22
V174
p23
aV856
p24
ag15
aV4112
p25
aV7
p26
atp27
Rp28
ag3
((lp29
V753
p30
ag17
ag15
ag26
aV367
p31
atp32
Rp33
as(I3
I4
tp34
(lp35
g3
((lp36
V4399
p37
aV250
p38
aV2018
p39
aV179
p40
atp41
Rp42
ag3
((lp43
V371
p44
aV422
p45
aV1245
p46
aV148
p47
atp48
Rp49
ag3
((lp50
V401
p51
aV127
p52
aV423
p53
aV3077
p54
aV3484
p55
aV427
p56
atp57
Rp58
ag3
((lp59
V1739
p60
aV251
p61
ag7
aV427
p62
atp63
Rp64
ag3
((lp65
V4164
p66
ag7
aV3356
p67
ag62
aV127
p68
atp69
Rp70
ag3
((lp71
V1129
p72
aV4187
p73
aV132
p74
aV2193
p75
aV4636
p76
ag40
ag17
aV176
p77
ag23
aV6174
p78
aV856
p79
aV2052
p80
aV1317
p81
aV937
p82
aV753
p83
aV2627
p84
aV717
p85
aV716
p86
aV2819
p87
aV3403
p88
aV4032
p89
aV124
p90
aV5654
p91
aV5515
p92
aV2178
p93
aV5267
p94
aV1550
p95
aV5263
p96
aV1258
p97
aV720
p98
aV1412
p99
ag8
aV2797
p100
aV2750
p101
aV2779
p102
aV147
p103
ag7
aV3276
p104
aV391
p105
aV390
p106
aV3537
p107
aV1907
p108
aV1929
p109
aV3734
p110
aV3348
p111
aV2549
p112
aV5724
p113
aV6067
p114
ag5
ag26
aV421
p115
aV367
p116
aV423
p117
aV427
p118
aV2873
p119
aV1235
p120
aV2606
p121
aV145
p122
aV143
p123
aV4257
p124
ag19
ag25
ag47
aV3059
p125
aV123
p126
aV248
p127
aV3544
p128
aV2047
p129
aV1647
p130
aV1603
p131
aV3505
p132
aV1537
p133
aV5978
p134
ag46
aV2066
p135
aV2374
p136
aV5452
p137
atp138
Rp139
ag3
((lp140
V9
p141
aV1473
p142
aV247
p143
ag52
atp144
Rp145
ag3
((lp146
g85
ag66
aV369
p147
aV427
p148
aV2733
p149
atp150
Rp151
ag3
((lp152
V122
p153
aV124
p154
ag123
aV3058
p155
aV3910
p156
atp157
Rp158
ag3
((lp159
V3009
p160
aV175
p161
ag46
aV2627
p162
atp163
Rp164
ag3
((lp165
V129
p166
aV2079
p167
aV864
p168
aV6081
p169
atp170
Rp171
ag3
((lp172
V753
p173
ag141
ag17
ag52
atp174
Rp175
ag3
((lp176
V1284
p177
aV5044
p178
aV3213
p179
ag23
ag147
ag148
atp180
Rp181
ag3
((lp182
V146
p183
aV144
p184
aV3937
p185
aV558
p186
atp187
Rp188
ag3
((lp189
V5281
p190
aV2096
p191
ag7
ag26
aV754
p192
aV762
p193
aV6174
p194
atp195
Rp196
ag3
((lp197
g23
ag5
aV3213
p198
aV4900
p199
aV30
p200
aV249
p201
aV1259
p202
atp203
Rp204
ag3
((lp205
V146
p206
aV147
p207
aV3459
p208
aV143
p209
aV314
p210
aV3417
p211
aV2860
p212
ag126
aV266
p213
aV264
p214
ag17
aV367
p215
aV249
p216
aV6138
p217
aV15
p218
aV3448
p219
aV2407
p220
aV5090
p221
aV3026
p222
aV4003
p223
aV5819
p224
aV1388
p225
aV368
p226
aV4482
p227
aV2490
p228
aV366
p229
aV1245
p230
aV1602
p231
atp232
Rp233
ag3
((lp234
V4705
p235
aV3551
p236
aV924
p237
aV144
p238
ag5
ag214
ag31
ag216
atp239
Rp240
ag3
((lp241
V367
p242
aV144
p243
aV4
p244
aV1934
p245
atp246
Rp247
ag3
((lp248
V2053
p249
aV2621
p250
ag106
aV423
p251
atp252
Rp253
ag3
((lp254
V146
p255
aV238
p256
aV143
p257
aV2699
p258
atp259
Rp260
ag3
((lp261
V667
p262
aV1352
p263
aV145
p264
ag23
atp265
Rp266
ag3
((lp267
V2046
p268
aV6132
p269
aV4751
p270
aV3495
p271
aV123
p272
aV353
p273
aV6181
p274
ag141
aV485
p275
ag61
ag216
atp276
Rp277
ag3
((lp278
g117
aV1784
p279
ag244
aV427
p280
atp281
Rp282
as(I3
I5
tp283
(lp284
g3
((lp285
g81
ag14
aV145
p286
ag73
ag17
ag16
ag19
atp287
Rp288
ag3
((lp289
g23
aV856
p290
ag15
aV4112
p291
ag26
atp292
Rp293
ag3
((lp294
g83
ag17
ag15
ag26
aV367
p295
atp296
Rp297
ag3
((lp298
g5
ag6
ag9
ag7
ag8
atp299
Rp300
as.