(dp0
V667
p1
(lp2
(I3
I4
tp3
asV3495
p4
(lp5
(I3
I4
tp6
asV1784
p7
(lp8
(I3
I4
tp9
asV3417
p10
(lp11
(I3
I4
tp12
asV2096
p13
(lp14
(I3
I4
tp15
asV127
p16
(lp17
(I3
I4
tp18
asV6081
p19
(lp20
(I3
I4
tp21
asV4705
p22
(lp23
(I3
I4
tp24
asV3551
p25
(lp26
(I3
I4
tp27
asV146
p28
(lp29
(I3
I4
tp30
asV4900
p31
(lp32
(I3
I4
tp33
asV2407
p34
(lp35
(I3
I4
tp36
asV2018
p37
(lp38
(I3
I4
tp39
asV401
p40
(lp41
(I3
I4
tp42
asV937
p43
(lp44
(I3
I4
tp45
asV1317
p46
(lp47
(I3
I4
tp48
a(I3
I5
tp49
a(I4
I5
tp50
asV7
p51
(lp52
(I3
I4
tp53
a(I3
I5
tp54
a(I4
I5
tp55
asV717
p56
(lp57
(I3
I4
tp58
asV716
p59
(lp60
(I3
I4
tp61
asV3937
p62
(lp63
(I3
I4
tp64
asV3484
p65
(lp66
(I3
I4
tp67
asV366
p68
(lp69
(I3
I4
tp70
asV122
p71
(lp72
(I3
I4
tp73
asV123
p74
(lp75
(I3
I4
tp76
asV124
p77
(lp78
(I3
I4
tp79
asV266
p80
(lp81
(I3
I4
tp82
asV264
p83
(lp84
(I3
I4
tp85
asV129
p86
(lp87
(I3
I4
tp88
asV5515
p89
(lp90
(I3
I4
tp91
asV423
p92
(lp93
(I3
I4
tp94
asV5267
p95
(lp96
(I3
I4
tp97
asV1550
p98
(lp99
(I3
I4
tp100
asV5263
p101
(lp102
(I3
I4
tp103
asV132
p104
(lp105
(I3
I4
tp106
asV2490
p107
(lp108
(I3
I4
tp109
asV1388
p110
(lp111
(I3
I4
tp112
asV427
p113
(lp114
(I3
I4
tp115
asV4482
p116
(lp117
(I3
I4
tp118
asV371
p119
(lp120
(I3
I4
tp121
asV1412
p122
(lp123
(I3
I4
tp124
asV924
p125
(lp126
(I3
I4
tp127
asV2797
p128
(lp129
(I3
I4
tp130
asV2066
p131
(lp132
(I3
I4
tp133
asV1129
p134
(lp135
(I3
I4
tp136
asV314
p137
(lp138
(I3
I4
tp139
asV3276
p140
(lp141
(I3
I4
tp142
asV391
p143
(lp144
(I3
I4
tp145
asV390
p146
(lp147
(I3
I4
tp148
asV176
p149
(lp150
(I3
I4
tp151
asV1929
p152
(lp153
(I3
I4
tp154
asV250
p155
(lp156
(I3
I4
tp157
asV251
p158
(lp159
(I3
I4
tp160
asV762
p161
(lp162
(I3
I4
tp163
asV5090
p164
(lp165
(I3
I4
tp166
asV3026
p167
(lp168
(I3
I4
tp169
asV2549
p170
(lp171
(I3
I4
tp172
asV2079
p173
(lp174
(I3
I4
tp175
asV6067
p176
(lp177
(I3
I4
tp178
asV368
p179
(lp180
(I3
I4
tp181
asV369
p182
(lp183
(I3
I4
tp184
asV421
p185
(lp186
(I3
I4
tp187
asV367
p188
(lp189
(I3
I4
tp190
a(I3
I5
tp191
a(I4
I5
tp192
asV2178
p193
(lp194
(I3
I4
tp195
asV422
p196
(lp197
(I3
I4
tp198
asV1258
p199
(lp200
(I3
I4
tp201
a(I3
I5
tp202
a(I4
I5
tp203
asV1259
p204
(lp205
(I3
I4
tp206
asV1235
p207
(lp208
(I3
I4
tp209
asV2606
p210
(lp211
(I3
I4
tp212
asV720
p213
(lp214
(I3
I4
tp215
asV856
p216
(lp217
(I3
I4
tp218
a(I3
I5
tp219
a(I4
I5
tp220
asV247
p221
(lp222
(I3
I4
tp223
asV4112
p224
(lp225
(I3
I4
tp226
a(I3
I5
tp227
a(I4
I5
tp228
asV148
p229
(lp230
(I3
I4
tp231
asV1934
p232
(lp233
(I3
I4
tp234
asV6174
p235
(lp236
(I3
I4
tp237
asV249
p238
(lp239
(I3
I4
tp240
asV248
p241
(lp242
(I3
I4
tp243
asV2046
p244
(lp245
(I3
I4
tp246
asV2047
p247
(lp248
(I3
I4
tp249
asV1647
p250
(lp251
(I3
I4
tp252
asV4751
p253
(lp254
(I3
I4
tp255
asV30
p256
(lp257
(I3
I4
tp258
asV3505
p259
(lp260
(I3
I4
tp261
asV1537
p262
(lp263
(I3
I4
tp264
asV5978
p265
(lp266
(I3
I4
tp267
asV1245
p268
(lp269
(I3
I4
tp270
asV2374
p271
(lp272
(I3
I4
tp273
asV2779
p274
(lp275
(I3
I4
tp276
asV4187
p277
(lp278
(I3
I4
tp279
a(I3
I5
tp280
a(I4
I5
tp281
asV2193
p282
(lp283
(I3
I4
tp284
asV4636
p285
(lp286
(I3
I4
tp287
asV179
p288
(lp289
(I3
I4
tp290
asV177
p291
(lp292
(I3
I4
tp293
a(I3
I5
tp294
a(I4
I5
tp295
asV1907
p296
(lp297
(I3
I4
tp298
asV175
p299
(lp300
(I3
I4
tp301
asV174
p302
(lp303
(I3
I4
tp304
a(I3
I5
tp305
a(I4
I5
tp306
asV3009
p307
(lp308
(I3
I4
tp309
asV1739
p310
(lp311
(I3
I4
tp312
asV2053
p313
(lp314
(I3
I4
tp315
asV2052
p316
(lp317
(I3
I4
tp318
asV3213
p319
(lp320
(I3
I4
tp321
asV3459
p322
(lp323
(I3
I4
tp324
asV4
p325
(lp326
(I3
I4
tp327
asV753
p328
(lp329
(I3
I4
tp330
a(I3
I5
tp331
a(I4
I5
tp332
asV2621
p333
(lp334
(I3
I4
tp335
asV2627
p336
(lp337
(I3
I4
tp338
asV754
p339
(lp340
(I3
I4
tp341
asV1352
p342
(lp343
(I3
I4
tp344
asV2819
p345
(lp346
(I3
I4
tp347
asV3077
p348
(lp349
(I3
I4
tp350
asV5654
p351
(lp352
(I3
I4
tp353
asV4399
p354
(lp355
(I3
I4
tp356
asV15
p357
(lp358
(I3
I4
tp359
asV3448
p360
(lp361
(I3
I4
tp362
asV864
p363
(lp364
(I3
I4
tp365
asV5819
p366
(lp367
(I3
I4
tp368
asV2750
p369
(lp370
(I3
I4
tp371
asV1458
p372
(lp373
(I3
I4
tp374
a(I3
I5
tp375
a(I4
I5
tp376
asV2860
p377
(lp378
(I3
I4
tp379
asV558
p380
(lp381
(I3
I4
tp382
asV2733
p383
(lp384
(I3
I4
tp385
asV238
p386
(lp387
(I3
I4
tp388
asV3537
p389
(lp390
(I3
I4
tp391
asV3734
p392
(lp393
(I3
I4
tp394
asV3348
p395
(lp396
(I3
I4
tp397
asV4164
p398
(lp399
(I3
I4
tp400
asV5452
p401
(lp402
(I3
I4
tp403
asV4003
p404
(lp405
(I3
I4
tp406
asV5724
p407
(lp408
(I3
I4
tp409
asV5
p410
(lp411
(I3
I4
tp412
a(I3
I5
tp413
a(I4
I5
tp414
asV6181
p415
(lp416
(I3
I4
tp417
asV9
p418
(lp419
(I3
I4
tp420
asV2873
p421
(lp422
(I3
I4
tp423
asV147
p424
(lp425
(I3
I4
tp426
asV144
p427
(lp428
(I3
I4
tp429
asV145
p430
(lp431
(I3
I4
tp432
a(I3
I5
tp433
a(I4
I5
tp434
asV143
p435
(lp436
(I3
I4
tp437
asV3910
p438
(lp439
(I3
I4
tp440
asV5281
p441
(lp442
(I3
I4
tp443
asV4257
p444
(lp445
(I3
I4
tp446
asV149
p447
(lp448
(I3
I4
tp449
a(I3
I5
tp450
a(I4
I5
tp451
asV3356
p452
(lp453
(I3
I4
tp454
asV3058
p455
(lp456
(I3
I4
tp457
asV3059
p458
(lp459
(I3
I4
tp460
asV485
p461
(lp462
(I3
I4
tp463
asV5044
p464
(lp465
(I3
I4
tp466
asV3544
p467
(lp468
(I3
I4
tp469
asV1284
p470
(lp471
(I3
I4
tp472
asV6138
p473
(lp474
(I3
I4
tp475
asV6132
p476
(lp477
(I3
I4
tp478
asV1603
p479
(lp480
(I3
I4
tp481
asV1602
p482
(lp483
(I3
I4
tp484
asV3403
p485
(lp486
(I3
I4
tp487
asV1473
p488
(lp489
(I3
I4
tp490
asV4032
p491
(lp492
(I3
I4
tp493
asV353
p494
(lp495
(I3
I4
tp496
a(I3
I5
tp497
a(I4
I5
tp498
asV2699
p499
(lp500
(I3
I4
tp501
as.